((ivocab
Vocab
p0
(dp1
S'id2pos_dict'
p2
(dp3
I0
S'PRP$'
p4
sI1
S'VBG'
p5
sI2
S'VBD'
p6
sI3
S'<root>'
p7
sI4
S'VBN'
p8
sI5
S','
p9
sI6
S"''"
p10
sI7
S'VBP'
p11
sI8
S'WDT'
p12
sI9
S'JJ'
p13
sI10
S'WP'
p14
sI11
S'VBZ'
p15
sI12
S'DT'
p16
sI13
S'#'
p17
sI14
S'RP'
p18
sI15
S'$'
p19
sI16
S'NN'
p20
sI17
S'FW'
p21
sI18
S'ROOT-POS'
p22
sI19
S'.'
p23
sI20
S'TO'
p24
sI21
S'PRP'
p25
sI22
S'RB'
p26
sI23
S'-LRB-'
p27
sI24
S':'
p28
sI25
S'NNS'
p29
sI26
S'NNP'
p30
sI27
S'``'
p31
sI28
S'WRB'
p32
sI29
S'CC'
p33
sI30
S'<null>'
p34
sI31
S'PDT'
p35
sI32
S'RBS'
p36
sI33
S'RBR'
p37
sI34
S'CD'
p38
sI35
S'EX'
p39
sI36
S'IN'
p40
sI37
S'WP$'
p41
sI38
S'MD'
p42
sI39
S'NNPS'
p43
sI40
S'-RRB-'
p44
sI41
S'POS'
p45
sI42
S'JJS'
p46
sI43
S'JJR'
p47
sI44
S'VB'
p48
sI45
S'UH'
p49
ssS'id2action_dict'
p50
(dp51
I0
S'SHIFT'
p52
sI1
S'LEFT-ARC:rroot'
p53
sI2
S'LEFT-ARC:cc'
p54
sI3
S'LEFT-ARC:number'
p55
sI4
S'LEFT-ARC:ccomp'
p56
sI5
S'LEFT-ARC:possessive'
p57
sI6
S'LEFT-ARC:prt'
p58
sI7
S'LEFT-ARC:num'
p59
sI8
S'LEFT-ARC:nsubjpass'
p60
sI9
S'LEFT-ARC:csubj'
p61
sI10
S'LEFT-ARC:conj'
p62
sI11
S'LEFT-ARC:dobj'
p63
sI12
S'LEFT-ARC:nn'
p64
sI13
S'LEFT-ARC:neg'
p65
sI14
S'LEFT-ARC:discourse'
p66
sI15
S'LEFT-ARC:mark'
p67
sI16
S'LEFT-ARC:auxpass'
p68
sI17
S'LEFT-ARC:infmod'
p69
sI18
S'LEFT-ARC:mwe'
p70
sI19
S'LEFT-ARC:advcl'
p71
sI20
S'LEFT-ARC:aux'
p72
sI21
S'LEFT-ARC:prep'
p73
sI22
S'LEFT-ARC:parataxis'
p74
sI23
S'LEFT-ARC:nsubj'
p75
sI24
S'LEFT-ARC:<null>'
p76
sI25
S'LEFT-ARC:rcmod'
p77
sI26
S'LEFT-ARC:advmod'
p78
sI27
S'LEFT-ARC:punct'
p79
sI28
S'LEFT-ARC:quantmod'
p80
sI29
S'LEFT-ARC:tmod'
p81
sI30
S'LEFT-ARC:acomp'
p82
sI31
S'LEFT-ARC:pcomp'
p83
sI32
S'LEFT-ARC:poss'
p84
sI33
S'LEFT-ARC:npadvmod'
p85
sI34
S'LEFT-ARC:xcomp'
p86
sI35
S'LEFT-ARC:cop'
p87
sI36
S'LEFT-ARC:partmod'
p88
sI37
S'LEFT-ARC:dep'
p89
sI38
S'LEFT-ARC:appos'
p90
sI39
S'LEFT-ARC:det'
p91
sI40
S'LEFT-ARC:amod'
p92
sI41
S'LEFT-ARC:pobj'
p93
sI42
S'LEFT-ARC:iobj'
p94
sI43
S'LEFT-ARC:expl'
p95
sI44
S'LEFT-ARC:predet'
p96
sI45
S'LEFT-ARC:preconj'
p97
sI46
S'LEFT-ARC:root'
p98
sI47
S'RIGHT-ARC:rroot'
p99
sI48
S'RIGHT-ARC:cc'
p100
sI49
S'RIGHT-ARC:number'
p101
sI50
S'RIGHT-ARC:ccomp'
p102
sI51
S'RIGHT-ARC:possessive'
p103
sI52
S'RIGHT-ARC:prt'
p104
sI53
S'RIGHT-ARC:num'
p105
sI54
S'RIGHT-ARC:nsubjpass'
p106
sI55
S'RIGHT-ARC:csubj'
p107
sI56
S'RIGHT-ARC:conj'
p108
sI57
S'RIGHT-ARC:dobj'
p109
sI58
S'RIGHT-ARC:nn'
p110
sI59
S'RIGHT-ARC:neg'
p111
sI60
S'RIGHT-ARC:discourse'
p112
sI61
S'RIGHT-ARC:mark'
p113
sI62
S'RIGHT-ARC:auxpass'
p114
sI63
S'RIGHT-ARC:infmod'
p115
sI64
S'RIGHT-ARC:mwe'
p116
sI65
S'RIGHT-ARC:advcl'
p117
sI66
S'RIGHT-ARC:aux'
p118
sI67
S'RIGHT-ARC:prep'
p119
sI68
S'RIGHT-ARC:parataxis'
p120
sI69
S'RIGHT-ARC:nsubj'
p121
sI70
S'RIGHT-ARC:<null>'
p122
sI71
S'RIGHT-ARC:rcmod'
p123
sI72
S'RIGHT-ARC:advmod'
p124
sI73
S'RIGHT-ARC:punct'
p125
sI74
S'RIGHT-ARC:quantmod'
p126
sI75
S'RIGHT-ARC:tmod'
p127
sI76
S'RIGHT-ARC:acomp'
p128
sI77
S'RIGHT-ARC:pcomp'
p129
sI78
S'RIGHT-ARC:poss'
p130
sI79
S'RIGHT-ARC:npadvmod'
p131
sI80
S'RIGHT-ARC:xcomp'
p132
sI81
S'RIGHT-ARC:cop'
p133
sI82
S'RIGHT-ARC:partmod'
p134
sI83
S'RIGHT-ARC:dep'
p135
sI84
S'RIGHT-ARC:appos'
p136
sI85
S'RIGHT-ARC:det'
p137
sI86
S'RIGHT-ARC:amod'
p138
sI87
S'RIGHT-ARC:pobj'
p139
sI88
S'RIGHT-ARC:iobj'
p140
sI89
S'RIGHT-ARC:expl'
p141
sI90
S'RIGHT-ARC:predet'
p142
sI91
S'RIGHT-ARC:preconj'
p143
sI92
S'RIGHT-ARC:root'
p144
ssS'action2id_dict'
p145
(dp146
g132
I80
sg119
I67
sg100
I48
sg107
I55
sg77
I25
sg130
I78
sg123
I71
sg125
I73
sg75
I23
sg94
I42
sg104
I52
sg73
I21
sg106
I54
sg67
I15
sg96
I44
sg78
I26
sg85
I33
sg142
I90
sg128
I76
sg83
I31
sg137
I85
sg135
I83
sg60
I8
sg56
I4
sg141
I89
sg124
I72
sg81
I29
sg108
I56
sg116
I64
sg138
I86
sg92
I40
sg70
I18
sg133
I81
sg54
I2
sg80
I28
sg58
I6
sg72
I20
sg127
I75
sg126
I74
sg69
I17
sg84
I32
sg62
I10
sg115
I63
sg93
I41
sg102
I50
sg71
I19
sg110
I58
sg101
I49
sg103
I51
sg61
I9
sg111
I59
sg90
I38
sg143
I91
sg68
I16
sg140
I88
sg113
I61
sg95
I43
sg55
I3
sg57
I5
sg129
I77
sg74
I22
sg82
I30
sg120
I68
sg134
I82
sg112
I60
sg109
I57
sg89
I37
sg91
I39
sg105
I53
sg98
I46
sg87
I35
sg114
I62
sg86
I34
sg66
I14
sg53
I1
sg52
I0
sg76
I24
sg136
I84
sg131
I79
sg139
I87
sg88
I36
sg117
I65
sg121
I69
sg79
I27
sg64
I12
sg144
I92
sg59
I7
sg63
I11
sg99
I47
sg118
I66
sg65
I13
sg122
I70
sg97
I45
ssS'id2word_dict'
p147
(dp148
I0
S'<unk>'
p149
sI1
S'<root>'
p150
sI3
S'four'
p151
sI4
S'Does'
p152
sI5
S'Until'
p153
sI6
S'looking'
p154
sI7
S'deputies'
p155
sI8
S'eligible'
p156
sI9
S'electricity'
p157
sI10
S'Western'
p158
sI11
S'herbicide'
p159
sI12
S'propane'
p160
sI13
S'regional'
p161
sI14
S'Salomon'
p162
sI15
S'bringing'
p163
sI16
S'disturb'
p164
sI17
S'Maxwell'
p165
sI18
S'Nasdaq'
p166
sI19
S'specialties'
p167
sI20
S'Paul'
p168
sI21
S'non-violent'
p169
sI22
S'Pinkerton'
p170
sI23
S'charter'
p171
sI24
S'mission'
p172
sI25
S'elegant'
p173
sI26
S'second'
p174
sI27
S'sterile'
p175
sI28
S'Counterpoint'
p176
sI29
S'errors'
p177
sI30
S'contributed'
p178
sI31
S'fingers'
p179
sI32
S'increasing'
p180
sI33
S'shocks'
p181
sI34
S'specialist'
p182
sI35
S'receivables'
p183
sI36
S'Budget'
p184
sI37
S'here'
p185
sI38
S'reported'
p186
sI39
S'elaborate'
p187
sI40
S'climbed'
p188
sI41
S'reports'
p189
sI42
S'Stelco'
p190
sI43
S'neurologist'
p191
sI44
S'military'
p192
sI45
S'criticism'
p193
sI46
S'golden'
p194
sI47
S'replace'
p195
sI48
S'brought'
p196
sI49
S'Basin'
p197
sI50
S'unit'
p198
sI51
S'marketers'
p199
sI52
S'music'
p200
sI53
S'strike'
p201
sI54
S'until'
p202
sI55
S'relax'
p203
sI56
S'successful'
p204
sI57
S'brings'
p205
sI58
S'hurt'
p206
sI59
S'90'
p207
sI60
S'hole'
p208
sI61
S'92'
p209
sI62
S'circumstances'
p210
sI63
S'pursue'
p211
sI64
S'plunged'
p212
sI65
S'revenues'
p213
sI66
S'example'
p214
sI67
S'Donaldson'
p215
sI68
S'La'
p216
sI69
S'want'
p217
sI70
S'damage'
p218
sI71
S'machine'
p219
sI72
S'how'
p220
sI73
S'hot'
p221
sI74
S'uninvited'
p222
sI75
S'chase'
p223
sI76
S'77.3'
p224
sI77
S'A'
p225
sI78
S'1,111'
p226
sI79
S'L.'
p227
sI80
S'wrong'
p228
sI81
S'effective'
p229
sI82
S'wins'
p230
sI83
S'Tiant'
p231
sI84
S'cigarettes'
p232
sI85
S'Another'
p233
sI86
S'wind'
p234
sI87
S'Blackstone'
p235
sI88
S'vary'
p236
sI89
S'Rated'
p237
sI90
S'intangible'
p238
sI91
S'His'
p239
sI92
S'fit'
p240
sI93
S'easier'
p241
sI94
S'slate'
p242
sI95
S'educating'
p243
sI96
S'yourself'
p244
sI97
S'slats'
p245
sI98
S'represents'
p246
sI99
S'Undersecretary'
p247
sI100
S'financial'
p248
sI101
S'series'
p249
sI102
S'substantially'
p250
sI103
S'laboratory'
p251
sI104
S'Hahn'
p252
sI105
S'20.125'
p253
sI106
S'waive'
p254
sI107
S'encourage'
p255
sI108
S'Chivas'
p256
sI109
S'University'
p257
sI110
S'sensory'
p258
sI111
S'estimate'
p259
sI112
S'Frankfurt'
p260
sI113
S'enormous'
p261
sI114
S'Mingo'
p262
sI115
S'1970s'
p263
sI116
S'service'
p264
sI117
S'lawsuits'
p265
sI118
S'needed'
p266
sI119
S'master'
p267
sI120
S'listed'
p268
sI121
S'bitter'
p269
sI122
S'ranging'
p270
sI123
S'Alexander'
p271
sI124
S'collapse'
p272
sI125
S'Code'
p273
sI126
S'showed'
p274
sI127
S'Coda'
p275
sI128
S'tree'
p276
sI129
S'nations'
p277
sI130
S'project'
p278
sI131
S'feeling'
p279
sI132
S'acquisition'
p280
sI133
S'willingness'
p281
sI134
S'Chicago'
p282
sI135
S'Haussmann'
p283
sI136
S'Then'
p284
sI137
S'responsible'
p285
sI138
S'floating-rate'
p286
sI139
S'Minister'
p287
sI140
S'They'
p288
sI141
S'Bank'
p289
sI142
S'concedes'
p290
sI143
S'transactions'
p291
sI144
S'letter'
p292
sI145
S'organization'
p293
sI146
S'singer'
p294
sI147
S'Hispanic'
p295
sI148
S'professor'
p296
sI149
S'camp'
p297
sI150
S'came'
p298
sI151
S'saying'
p299
sI152
S'reactor'
p300
sI153
S'meetings'
p301
sI154
S'Agency'
p302
sI155
S'participate'
p303
sI156
S'Congressional'
p304
sI157
S'submit'
p305
sI158
S'interbank'
p306
sI159
S'theme'
p307
sI160
S'rice'
p308
sI161
S'plate'
p309
sI162
S'altogether'
p310
sI163
S'net'
p311
sI164
S'Colorado'
p312
sI165
S'Senators'
p313
sI166
S'three-year'
p314
sI167
S'release'
p315
sI168
S'Clearly'
p316
sI169
S'respond'
p317
sI170
S'mandatory'
p318
sI171
S'result'
p319
sI172
S'fail'
p320
sI173
S'John'
p321
sI174
S'best'
p322
sI175
S'sedans'
p323
sI176
S'lots'
p324
sI177
S'141.90'
p325
sI178
S'preserve'
p326
sI179
S'letting'
p327
sI180
S'men'
p328
sI181
S'nature'
p329
sI182
S'rolled'
p330
sI183
S'debt'
p331
sI184
S'country'
p332
sI185
S'planned'
p333
sI186
S'Leche'
p334
sI187
S'argue'
p335
sI188
S'asked'
p336
sI189
S'irresponsible'
p337
sI190
S'250'
p338
sI191
S'251'
p339
sI192
S'holdings'
p340
sI193
S'Marcos'
p341
sI194
g23
sI195
S'much'
p342
sI196
S'privilege'
p343
sI197
S'life'
p344
sI198
S'Tokyo'
p345
sI199
S'Poland'
p346
sI200
S'Donovan'
p347
sI201
S'lift'
p348
sI202
S'worked'
p349
sI203
S'employ'
p350
sI204
S'economics'
p351
sI205
S'Mitsui'
p352
sI206
S'Nonetheless'
p353
sI207
S'player'
p354
sI208
S'upscale'
p355
sI209
S'Capital'
p356
sI210
S'things'
p357
sI211
S'feuding'
p358
sI212
S'split'
p359
sI213
S'rebound'
p360
sI214
S'fairly'
p361
sI215
S'Maybe'
p362
sI216
S'middle-aged'
p363
sI217
S'Angeles'
p364
sI218
S'ownership'
p365
sI219
S'tune'
p366
sI220
S'midsized'
p367
sI221
S'RJR'
p368
sI222
S'academic'
p369
sI223
S'corporate'
p370
sI224
S'succeeding'
p371
sI225
S'previous'
p372
sI226
S'ease'
p373
sI227
S'had'
p374
sI228
S'emphasis'
p375
sI229
S'Leonard'
p376
sI230
S'has'
p377
sI231
S'posed'
p378
sI232
S'possible'
p379
sI233
S'possibly'
p380
sI234
S'Chrysler'
p381
sI235
S'desire'
p382
sI236
S'steps'
p383
sI237
S'Steven'
p384
sI238
S'Pentagon'
p385
sI239
S'beneficial'
p386
sI240
S'right'
p387
sI241
S'old'
p388
sI242
S'crowd'
p389
sI243
S'people'
p390
sI244
S'consultants'
p391
sI245
S'Nixdorf'
p392
sI246
S'for'
p393
sI247
S'creative'
p394
sI248
S'continue'
p395
sI249
S'losing'
p396
sI250
S'brokerage'
p397
sI251
S'manufacturing'
p398
sI252
S'First'
p399
sI253
S'dollars'
p400
sI254
S'slightly'
p401
sI255
S'consulting'
p402
sI256
S'statements'
p403
sI257
S'facility'
p404
sI258
S'son'
p405
sI259
S'administer'
p406
sI260
S'magazines'
p407
sI261
S'Korean'
p408
sI262
S'defendants'
p409
sI263
S'support'
p410
sI264
S'one-time'
p411
sI265
S'authorized'
p412
sI266
S'resulted'
p413
sI267
S'launching'
p414
sI268
S'offer'
p415
sI269
S'back'
p416
sI270
S'devices'
p417
sI271
S'County'
p418
sI272
S'Engineering'
p419
sI273
S'refillable'
p420
sI274
S'150'
p421
sI275
S'proved'
p422
sI276
S'156'
p423
sI277
S'steady'
p424
sI278
S"''"
p425
sI279
S'dealer'
p426
sI280
S'negotiations'
p427
sI281
S'Tashi'
p428
sI282
S'floor'
p429
sI283
S'role'
p430
sI284
S'developers'
p431
sI285
S'roll'
p432
sI286
S"'s"
p433
sI287
S'get-together'
p434
sI288
S'models'
p435
sI289
S"'d"
p436
sI290
S'invested'
p437
sI291
S'rolling'
p438
sI292
S"'m"
p439
sI293
S'jewelry'
p440
sI294
S'reorganization'
p441
sI295
S'Charles'
p442
sI296
S'fastener'
p443
sI297
S'Datapoint'
p444
sI298
S'time'
p445
sI299
S'push'
p446
sI300
S'chain'
p447
sI301
S'Indians'
p448
sI302
S'hold'
p449
sI303
S'Lighting'
p450
sI304
S'eliminate'
p451
sI305
S'prepaid'
p452
sI306
S'revamping'
p453
sI307
S'consolidation'
p454
sI308
S'choice'
p455
sI309
S'minute'
p456
sI310
S'Tax'
p457
sI311
S'Intelogic'
p458
sI312
S'leave'
p459
sI313
S'team'
p460
sI314
S'depository'
p461
sI315
S'speculation'
p462
sI316
S'prevent'
p463
sI317
S'findings'
p464
sI318
S'sign'
p465
sI319
S'current'
p466
sI320
S'falling'
p467
sI321
S'boost'
p468
sI322
S'jury'
p469
sI323
S'leaped'
p470
sI324
S'guise'
p471
sI325
S'alone'
p472
sI326
S'along'
p473
sI327
S'My'
p474
sI328
S'Warner'
p475
sI329
S'passengers'
p476
sI330
S'brilliant'
p477
sI331
S'Associates'
p478
sI332
S'studies'
p479
sI333
S'Canter'
p480
sI334
S'tasks'
p481
sI335
S'love'
p482
sI336
S'prefer'
p483
sI337
S'fake'
p484
sI338
S'August'
p485
sI339
S'working'
p486
sI340
S'wicker'
p487
sI341
S'2645.08'
p488
sI342
S'opposed'
p489
sI343
S'scope'
p490
sI344
S'Those'
p491
sI345
S'``'
p492
sI346
S'refrain'
p493
sI347
S'Barr'
p494
sI348
S'behalf'
p495
sI349
S'honey'
p496
sI350
S'valued'
p497
sI351
S'currency'
p498
sI352
S'originally'
p499
sI353
S'believes'
p500
sI354
S'printing'
p501
sI355
S'values'
p502
sI356
S'believed'
p503
sI357
S'Our'
p504
sI358
S'Holding'
p505
sI359
S'Federal'
p506
sI360
S'allowed'
p507
sI361
S'gimmickry'
p508
sI362
S'divided'
p509
sI363
S'Why'
p510
sI364
S'five-year'
p511
sI365
S'spot'
p512
sI366
S'date'
p513
sI367
S'such'
p514
sI368
S'data'
p515
sI369
S'natural'
p516
sI370
S'sectors'
p517
sI371
S'so'
p518
sI372
S'pulled'
p519
sI373
S'years'
p520
sI374
S'course'
p521
sI375
S'overhaul'
p522
sI376
S'thumb'
p523
sI377
S'Stoltzman'
p524
sI378
S'troubles'
p525
sI379
S'suspension'
p526
sI380
S'troubled'
p527
sI381
S'decades'
p528
sI382
S'TCMP'
p529
sI383
S'thereby'
p530
sI384
S'nation'
p531
sI385
S'records'
p532
sI386
S'compelled'
p533
sI387
S'Kemp'
p534
sI388
S'subordinated'
p535
sI389
S'Stanley'
p536
sI390
S'quarter'
p537
sI391
S'revised'
p538
sI392
S'container'
p539
sI393
S'Michigan'
p540
sI394
S'seriously'
p541
sI395
S'investigation'
p542
sI396
S'suggesting'
p543
sI397
S'formula'
p544
sI398
S'million'
p545
sI399
S'possibility'
p546
sI400
S'plea'
p547
sI401
S'remainder'
p548
sI402
S'training'
p549
sI403
S'modest'
p550
sI404
S'massive'
p551
sI405
S'routes'
p552
sI406
S'Brazil'
p553
sI407
S'Ontario'
p554
sI408
S'spoken'
p555
sI409
S'one'
p556
sI410
S'specifically'
p557
sI411
S'vote'
p558
sI412
S'open'
p559
sI413
S'city'
p560
sI414
S'Monday'
p561
sI415
S'structured'
p562
sI416
S'indicate'
p563
sI417
S'2'
p564
sI418
S'draft'
p565
sI419
S'whitewash'
p566
sI420
S'specialists'
p567
sI421
S'representing'
p568
sI422
S'depressed'
p569
sI423
S'rival'
p570
sI424
S'future'
p571
sI425
S'glossy'
p572
sI426
S'turned'
p573
sI427
S'argument'
p574
sI428
S'headquarters'
p575
sI429
S'say'
p576
sI430
S'Inquiry'
p577
sI431
S'saw'
p578
sI432
S'sat'
p579
sI433
S'fashionable'
p580
sI434
S'aside'
p581
sI435
S'note'
p582
sI436
S'take'
p583
sI437
S'destroy'
p584
sI438
S'Leemans'
p585
sI439
S'high-technology'
p586
sI440
S'opposite'
p587
sI441
S'airing'
p588
sI442
S'remarks'
p589
sI443
S'inserted'
p590
sI444
S'pages'
p591
sI445
S'1/2'
p592
sI446
S'average'
p593
sI447
S'subcompact'
p594
sI448
S'Chez'
p595
sI449
S'drive'
p596
sI450
S'federal'
p597
sI451
S'refining'
p598
sI452
S'liquidity'
p599
sI453
S'laws'
p600
sI454
S'surplus'
p601
sI455
S'Systems'
p602
sI456
S'aggressive'
p603
sI457
S'slow'
p604
sI458
S'3'
p605
sI459
S'going'
p606
sI460
S'Housing'
p607
sI461
S'congressional'
p608
sI462
S'dispute'
p609
sI463
S'assistant'
p610
sI464
S'recombinant'
p611
sI465
S'prime'
p612
sI466
S'borrow'
p613
sI467
S'worried'
p614
sI468
S'where'
p615
sI469
S'Church'
p616
sI470
S'jumped'
p617
sI471
S'representatives'
p618
sI472
S'Mather'
p619
sI473
S'affecting'
p620
sI474
S'Mitsubishi'
p621
sI475
S'jobs'
p622
sI476
S'Securities'
p623
sI477
S'concentrate'
p624
sI478
S'spark'
p625
sI479
S'many'
p626
sI480
S'Mortgage'
p627
sI481
S'Horton'
p628
sI482
S'better'
p629
sI483
S'Lynch'
p630
sI484
S'motives'
p631
sI485
S'wants'
p632
sI486
S'BankAmerica'
p633
sI487
S'enable'
p634
sI488
S'formed'
p635
sI489
S'centerpiece'
p636
sI490
S'Analysts'
p637
sI491
S'former'
p638
sI492
S'MORTGAGE'
p639
sI493
S'consultant'
p640
sI494
S'engineering'
p641
sI495
S'policies'
p642
sI496
S'newspaper'
p643
sI497
S'situation'
p644
sI498
S'engaged'
p645
sI499
S'13.5'
p646
sI500
S'technology'
p647
sI501
S'13.1'
p648
sI502
S'dragging'
p649
sI503
S'Freddie'
p650
sI504
S'550,000'
p651
sI505
S'edged'
p652
sI506
S'I'
p653
sI507
S'boosted'
p654
sI508
S'IRS'
p655
sI509
S'costs'
p656
sI510
S'summer'
p657
sI511
S'being'
p658
sI512
S'rest'
p659
sI513
S'Mexicans'
p660
sI514
S'Markets'
p661
sI515
S'aspects'
p662
sI516
S'around'
p663
sI517
S'rejoin'
p664
sI518
S'period'
p665
sI519
S'traffic'
p666
sI520
S'pop'
p667
sI521
S'world'
p668
sI522
S'60'
p669
sI523
S'superiority'
p670
sI524
S'65'
p671
sI525
S'India'
p672
sI526
S'bizarre'
p673
sI527
S'Vienna'
p674
sI528
S'Projects'
p675
sI529
S'scientific'
p676
sI530
S'power'
p677
sI531
S'retains'
p678
sI532
S'leadership'
p679
sI533
S'executives'
p680
sI534
S'industry'
p681
sI535
S'favorite'
p682
sI536
S'act'
p683
sI537
S'mean'
p684
sI538
S'No'
p685
sI539
S'image'
p686
sI540
S'Lease'
p687
sI541
S'her'
p688
sI542
S'sealed'
p689
sI543
S'materials'
p690
sI544
S'complete'
p691
sI545
S'Bromley'
p692
sI546
S'Vosges'
p693
sI547
S'elimination'
p694
sI548
S'technologies'
p695
sI549
S'with'
p696
sI550
S'buying'
p697
sI551
S'pull'
p698
sI552
S'House'
p699
sI553
S'politically'
p700
sI554
S'agree'
p701
sI555
S'detailed'
p702
sI556
S'gone'
p703
sI557
S'ad'
p704
sI558
S'certain'
p705
sI559
S'am'
p706
sI560
S'Airlines'
p707
sI561
S'watches'
p708
sI562
S'an'
p709
sI563
S'as'
p710
sI564
S'at'
p711
sI565
S'watched'
p712
sI566
S'Real'
p713
sI567
S'abolish'
p714
sI568
S'Atlantic'
p715
sI569
S'Alex'
p716
sI570
S'reached'
p717
sI571
S'Conn.-based'
p718
sI572
S'tricks'
p719
sI573
S'Street'
p720
sI574
S'wastewater'
p721
sI575
S'classical'
p722
sI576
S'consider'
p723
sI577
S'caused'
p724
sI578
S'tours'
p725
sI579
S'restated'
p726
sI580
S'to'
p727
sI581
S'paying'
p728
sI582
S'blockade'
p729
sI583
S'Cockburn'
p730
sI584
S'cable'
p731
sI585
S'joined'
p732
sI586
S'large'
p733
sI587
S'small'
p734
sI588
S'Nomura'
p735
sI589
S'193'
p736
sI590
S'past'
p737
sI591
S'pass'
p738
sI592
S'investment'
p739
sI593
S'Giovanni'
p740
sI594
S'scientists'
p741
sI595
S'Ogilvy'
p742
sI596
S'contrast'
p743
sI597
S'full'
p744
sI598
S'Finland'
p745
sI599
S'hours'
p746
sI600
S'experience'
p747
sI601
S'prior'
p748
sI602
S'social'
p749
sI603
S'action'
p750
sI604
S'via'
p751
sI605
S'select'
p752
sI606
S'Hewlett-Packard'
p753
sI607
S'Egg'
p754
sI608
S'objectives'
p755
sI609
S'6'
p756
sI610
S'Conlon'
p757
sI611
S'more'
p758
sI612
S'610'
p759
sI613
S'door'
p760
sI614
S'company'
p761
sI615
S'LaFalce'
p762
sI616
S'tested'
p763
sI617
S'keeping'
p764
sI618
S'resources'
p765
sI619
S'male'
p766
sI620
S'Conference'
p767
sI621
S'prompt'
p768
sI622
S'stated'
p769
sI623
S'accept'
p770
sI624
S'states'
p771
sI625
S'Banxquote'
p772
sI626
S'sense'
p773
sI627
S'huge'
p774
sI628
S'earnings'
p775
sI629
S'Hanover'
p776
sI630
S'plant'
p777
sI631
S'intended'
p778
sI632
S'plane'
p779
sI633
S'director'
p780
sI634
S'Swiss'
p781
sI635
S'acquisitions'
p782
sI636
S'broadcasting'
p783
sI637
S'fundamental'
p784
sI638
S'50.875'
p785
sI639
S'greats'
p786
sI640
S'trade'
p787
sI641
S'attitude'
p788
sI642
S'paper'
p789
sI643
S'signs'
p790
sI644
S'Edelman'
p791
sI645
S'its'
p792
sI646
S'rapidly'
p793
sI647
S'Brussels'
p794
sI648
S'ally'
p795
sI649
S'tentatively'
p796
sI650
S'Michael'
p797
sI651
S'always'
p798
sI652
S'found'
p799
sI653
S'investigators'
p800
sI654
S'status'
p801
sI655
S'reduce'
p802
sI656
S'slowdown'
p803
sI657
S'advertisers'
p804
sI658
S'operation'
p805
sI659
S'really'
p806
sI660
S'research'
p807
sI661
S'Class'
p808
sI662
S'belief'
p809
sI663
S'risen'
p810
sI664
S'Toyota'
p811
sI665
S'sparked'
p812
sI666
S'qualify'
p813
sI667
S'rises'
p814
sI668
S'driven'
p815
sI669
S'owners'
p816
sI670
S'retained'
p817
sI671
S'statutory'
p818
sI672
S'major'
p819
sI673
S'slipped'
p820
sI674
S'number'
p821
sI675
S'contended'
p822
sI676
S'heads'
p823
sI677
S'summit'
p824
sI678
S'relationship'
p825
sI679
S'appreciation'
p826
sI680
S'crop'
p827
sI681
S'licensed'
p828
sI682
S'determined'
p829
sI683
S'marriage'
p830
sI684
S'assume'
p831
sI685
S'Achenbaum'
p832
sI686
S'Equity'
p833
sI687
S'sell'
p834
sI688
S'also'
p835
sI689
S'internal'
p836
sI690
S'seized'
p837
sI691
S'play'
p838
sI692
S'plan'
p839
sI693
S'Petroleos'
p840
sI694
S'sometimes'
p841
sI695
S'cover'
p842
sI696
S'three-month'
p843
sI697
S'justify'
p844
sI698
S'dragged'
p845
sI699
S'golf'
p846
sI700
S'gold'
p847
sI701
S'session'
p848
sI702
S'expressed'
p849
sI703
S'Lilly'
p850
sI704
S'impact'
p851
sI705
S'indicator'
p852
sI706
S'writer'
p853
sI707
S'failed'
p854
sI708
S'condom'
p855
sI709
S'equity'
p856
sI710
S'giants'
p857
sI711
S'actions'
p858
sI712
S'closely'
p859
sI713
S'reporters'
p860
sI714
S'Tator'
p861
sI715
S'debt-equity'
p862
sI716
S'banking'
p863
sI717
S'river'
p864
sI718
S'rumored'
p865
sI719
S'set'
p866
sI720
S'For'
p867
sI721
S'activists'
p868
sI722
S'instituted'
p869
sI723
S'see'
p870
sI724
g17
sI725
S'currently'
p871
sI726
S'pickup'
p872
sI727
S'Sony'
p873
sI728
S'available'
p874
sI729
S'targeted'
p875
sI730
S'Florida'
p876
sI731
S'incident'
p877
sI732
S'dividend'
p878
sI733
S'electrical'
p879
sI734
S'legislature'
p880
sI735
S'prospects'
p881
sI736
S'last'
p882
sI737
S'1.65'
p883
sI738
S'long-term'
p884
sI739
S'McEnaney'
p885
sI740
S'approve'
p886
sI741
S'loan'
p887
sI742
S'community'
p888
sI743
S'agents'
p889
sI744
S'church'
p890
sI745
S'publishing'
p891
sI746
S'monthly'
p892
sI747
S'Jennison'
p893
sI748
S'firm'
p894
sI749
S'fire'
p895
sI750
S'mine'
p896
sI751
S'fund'
p897
sI752
S'38'
p898
sI753
S'representative'
p899
sI754
S'insiders'
p900
sI755
S'struck'
p901
sI756
S'handling'
p902
sI757
S'Old'
p903
sI758
S'judicial'
p904
sI759
S'straight'
p905
sI760
S'expanded'
p906
sI761
S'budget'
p907
sI762
S'technical'
p908
sI763
S'Market'
p909
sI764
S'owed'
p910
sI765
S'pound'
p911
sI766
S'hoping'
p912
sI767
S'Biosource'
p913
sI768
S'Pertschuk'
p914
sI769
S'34'
p915
sI770
S'Stock'
p916
sI771
S'read'
p917
sI772
S'virtually'
p918
sI773
S'survey'
p919
sI774
S'Gen-Probe'
p920
sI775
S'affairs'
p921
sI776
S'defeat'
p922
sI777
S'alert'
p923
sI778
S'levels'
p924
sI779
S'{'
p925
sI780
S'recent'
p926
sI781
S'Project'
p927
sI782
S'alleging'
p928
sI783
S'person'
p929
sI784
S'*root*'
p930
sI785
S'Sox'
p931
sI786
S'clearance'
p932
sI787
S'O.'
p933
sI788
S'Labor'
p934
sI789
S'signal'
p935
sI790
S'readers'
p936
sI791
S'parents'
p937
sI792
S'homeland'
p938
sI793
S'Brands'
p939
sI794
S'surprised'
p940
sI795
S'Both'
p941
sI796
S'victims'
p942
sI797
S'doors'
p943
sI798
S'emergency'
p944
sI799
S'demands'
p945
sI800
S'Of'
p946
sI801
S'couple'
p947
sI802
S'private'
p948
sI803
S'standstill'
p949
sI804
S'Or'
p950
sI805
S'projects'
p951
sI806
S'formal'
p952
sI807
S'anthers'
p953
sI808
S'consensus'
p954
sI809
S'communications'
p955
sI810
S'individuals'
p956
sI811
S'yields'
p957
sI812
S'names'
p958
sI813
S'Jones'
p959
sI814
S'composer'
p960
sI815
S'spring'
p961
sI816
S'Frank'
p962
sI817
S'religion'
p963
sI818
S'Pact'
p964
sI819
S'be'
p965
sI820
S'performed'
p966
sI821
S'word'
p967
sI822
S'agreement'
p968
sI823
S'by'
p969
sI824
S'certificate'
p970
sI825
S'anything'
p971
sI826
S'exaggerated'
p972
sI827
S'Pont'
p973
sI828
S'flying'
p974
sI829
S'Shaw'
p975
sI830
S'into'
p976
sI831
S'150-member'
p977
sI832
S'primarily'
p978
sI833
S'repaid'
p979
sI834
S'spending'
p980
sI835
S'bargaining'
p981
sI836
S'crackdown'
p982
sI837
S'suit'
p983
sI838
g28
sI839
S'considerably'
p984
sI840
S'elsewhere'
p985
sI841
S'stock-price'
p986
sI842
S'deductions'
p987
sI843
S'line'
p988
sI844
S'posted'
p989
sI845
S'GDP'
p990
sI846
S'refinancing'
p991
sI847
S'Office'
p992
sI848
S'antitrust'
p993
sI849
S'Africa'
p994
sI850
S'up'
p995
sI851
S'us'
p996
sI852
S'maturity'
p997
sI853
S'apiece'
p998
sI854
S'alarm'
p999
sI855
S'yelled'
p1000
sI856
S'defined'
p1001
sI857
S'start-up'
p1002
sI858
S'influence'
p1003
sI859
S'Twins'
p1004
sI860
S'Manhattan'
p1005
sI861
S'intact'
p1006
sI862
S'elements'
p1007
sI863
S'Canonie'
p1008
sI864
S'sides'
p1009
sI865
S'swaps'
p1010
sI866
S'ago'
p1011
sI867
S'land'
p1012
sI868
S'methodologies'
p1013
sI869
S'age'
p1014
sI870
S'walked'
p1015
sI871
S'Stamford'
p1016
sI872
S'having'
p1017
sI873
S'partial'
p1018
sI874
S'results'
p1019
sI875
S'existing'
p1020
sI876
S'broader'
p1021
sI877
S'QVC'
p1022
sI878
S'centers'
p1023
sI879
S'seemed'
p1024
sI880
S'McLaughlin'
p1025
sI881
S'concerned'
p1026
sI882
S'young'
p1027
sI883
S'send'
p1028
sI884
S'Union'
p1029
sI885
S'sent'
p1030
sI886
S'probe'
p1031
sI887
S'continues'
p1032
sI888
S'animals'
p1033
sI889
S'continued'
p1034
sI890
S'minerals'
p1035
sI891
S'fewer'
p1036
sI892
S'try'
p1037
sI893
S'Bankruptcy'
p1038
sI894
S'licenses'
p1039
sI895
S'index'
p1040
sI896
S'Alan'
p1041
sI897
S'consistently'
p1042
sI898
S'turnaround'
p1043
sI899
S'flowing'
p1044
sI900
S'firms'
p1045
sI901
S'equivalent'
p1046
sI902
S'publications'
p1047
sI903
S'led'
p1048
sI904
S'respectively'
p1049
sI905
S'let'
p1050
sI906
S'great'
p1051
sI907
S'engage'
p1052
sI908
S'receive'
p1053
sI909
S'involved'
p1054
sI910
S'Energy'
p1055
sI911
S'resulting'
p1056
sI912
S'insulin'
p1057
sI913
S'opinion'
p1058
sI914
S'residents'
p1059
sI915
S'makes'
p1060
sI916
S'maker'
p1061
sI917
S'involves'
p1062
sI918
S'Greenwich'
p1063
sI919
S'7.55'
p1064
sI920
S'boxy'
p1065
sI921
S'standing'
p1066
sI922
S'confidence'
p1067
sI923
S'zip'
p1068
sI924
S'Seagram'
p1069
sI925
S'illegal'
p1070
sI926
S'next'
p1071
sI927
S'NATO'
p1072
sI928
S'face-to-face'
p1073
sI929
S'Mulford'
p1074
sI930
S'dealings'
p1075
sI931
S'opposing'
p1076
sI932
S'sharply'
p1077
sI933
S'this'
p1078
sI934
S'challenge'
p1079
sI935
S'clients'
p1080
sI936
S'thin'
p1081
sI937
S'process'
p1082
sI938
S'purposes'
p1083
sI939
S'pieces'
p1084
sI940
S'high'
p1085
sI941
S'slip'
p1086
sI942
S'Several'
p1087
sI943
S'delay'
p1088
sI944
S'animal'
p1089
sI945
S'tied'
p1090
sI946
S'ties'
p1091
sI947
S'counter'
p1092
sI948
S'Community'
p1093
sI949
S'One'
p1094
sI950
S'Oct.'
p1095
sI951
S'allow'
p1096
sI952
S'counted'
p1097
sI953
S'Schramm'
p1098
sI954
S'producer'
p1099
sI955
S'move'
p1100
sI956
S'outlook'
p1101
sI957
S'produced'
p1102
sI958
S'directs'
p1103
sI959
S'8.55'
p1104
sI960
S'year-earlier'
p1105
sI961
S'meantime'
p1106
sI962
S'stalled'
p1107
sI963
S'volatility'
p1108
sI964
S'Herbert'
p1109
sI965
S'realize'
p1110
sI966
S'San'
p1111
sI967
S'Sam'
p1112
sI968
S'merge'
p1113
sI969
S'Yetnikoff'
p1114
sI970
S'Kato'
p1115
sI971
S'accounts'
p1116
sI972
S'determine'
p1117
sI973
S'doing'
p1118
sI974
S'society'
p1119
sI975
S'books'
p1120
sI976
S'Treasury'
p1121
sI977
S"'"
p1122
sI978
S'dismissal'
p1123
sI979
S'shut'
p1124
sI980
S'Meek'
p1125
sI981
S'regulators'
p1126
sI982
S'regulatory'
p1127
sI983
S'dubbed'
p1128
sI984
S'could'
p1129
sI985
S'put'
p1130
sI986
S'length'
p1131
sI987
S'pigs'
p1132
sI988
S'stimulate'
p1133
sI989
S'Review'
p1134
sI990
S'owned'
p1135
sI991
S'owner'
p1136
sI992
S'Capel'
p1137
sI993
S'Ries'
p1138
sI994
S'vetoed'
p1139
sI995
S'District'
p1140
sI996
S'Eastern'
p1141
sI997
S'system'
p1142
sI998
S'enforcement'
p1143
sI999
S'larger'
p1144
sI1000
S'Democratic'
p1145
sI1001
S'steel'
p1146
sI1002
S'colleagues'
p1147
sI1003
S'fastball'
p1148
sI1004
S'appealing'
p1149
sI1005
S'decided'
p1150
sI1006
S'exclusive'
p1151
sI1007
S'partnership'
p1152
sI1008
S'seaborne'
p1153
sI1009
S'clearly'
p1154
sI1010
S'viewed'
p1155
sI1011
S'documents'
p1156
sI1012
S'equaling'
p1157
sI1013
S'Pierce'
p1158
sI1014
S'device'
p1159
sI1015
S'Asked'
p1160
sI1016
S'Reserve'
p1161
sI1017
S'so-called'
p1162
sI1018
S'MCI'
p1163
sI1019
S'stronger'
p1164
sI1020
S'MCA'
p1165
sI1021
S'face'
p1166
sI1022
S'fact'
p1167
sI1023
S'Paris'
p1168
sI1024
S'bring'
p1169
sI1025
S'Under'
p1170
sI1026
S'economist'
p1171
sI1027
S'decade'
p1172
sI1028
S'principal'
p1173
sI1029
S'Meanwhile'
p1174
sI1030
S'should'
p1175
sI1031
S'tape'
p1176
sI1032
S'riding'
p1177
sI1033
S'secretaries'
p1178
sI1034
S'hope'
p1179
sI1035
S'bonds'
p1180
sI1036
S'familiar'
p1181
sI1037
S'prohibition'
p1182
sI1038
S'Once'
p1183
sI1039
S'Because'
p1184
sI1040
S'taxes'
p1185
sI1041
S'default'
p1186
sI1042
S'stuff'
p1187
sI1043
S'allegation'
p1188
sI1044
S'taxed'
p1189
sI1045
S'temporarily'
p1190
sI1046
S'downward'
p1191
sI1047
S'packet'
p1192
sI1048
S'Source'
p1193
sI1049
S'subcommittee'
p1194
sI1050
S'bidders'
p1195
sI1051
S'extend'
p1196
sI1052
S'nuclear'
p1197
sI1053
S'nominees'
p1198
sI1054
S'Republican'
p1199
sI1055
S'ends'
p1200
sI1056
S'single-A-3'
p1201
sI1057
S'single-A-2'
p1202
sI1058
S'notion'
p1203
sI1059
S'Hartt'
p1204
sI1060
S'P.'
p1205
sI1061
S'restrictions'
p1206
sI1062
S'figured'
p1207
sI1063
S'drug'
p1208
sI1064
S'figures'
p1209
sI1065
S'adjusted'
p1210
sI1066
S'Her'
p1211
sI1067
S'ca'
p1212
sI1068
S'near-term'
p1213
sI1069
S'8.1'
p1214
sI1070
S'balloonists'
p1215
sI1071
S'genetic'
p1216
sI1072
S'rioting'
p1217
sI1073
S'Unocal'
p1218
sI1074
S'Medical'
p1219
sI1075
S'drink'
p1220
sI1076
S'upon'
p1221
sI1077
S'4.7'
p1222
sI1078
S'expand'
p1223
sI1079
S'audit'
p1224
sI1080
S'off'
p1225
sI1081
S'fully'
p1226
sI1082
S'350'
p1227
sI1083
S'drawing'
p1228
sI1084
S'less'
p1229
sI1085
S'11/16'
p1230
sI1086
S'residential'
p1231
sI1087
S'Company'
p1232
sI1088
S'Eduard'
p1233
sI1089
S'cosmetics'
p1234
sI1090
S'increased'
p1235
sI1091
S'government'
p1236
sI1092
S'increases'
p1237
sI1093
S'Law'
p1238
sI1094
S'become'
p1239
sI1095
S'replacement'
p1240
sI1096
S'amendment'
p1241
sI1097
S'indications'
p1242
sI1098
S'ballot'
p1243
sI1099
S'recognition'
p1244
sI1100
S'13/16'
p1245
sI1101
S'leveraged'
p1246
sI1102
S'salaries'
p1247
sI1103
S'demonstrators'
p1248
sI1104
S'does'
p1249
sI1105
S'passion'
p1250
sI1106
S'pressure'
p1251
sI1107
S'accompanied'
p1252
sI1108
S'hiding'
p1253
sI1109
S'gained'
p1254
sI1110
S'asks'
p1255
sI1111
S'union'
p1256
sI1112
S'seeds'
p1257
sI1113
S'software'
p1258
sI1114
S'letters'
p1259
sI1115
S'From'
p1260
sI1116
S'negotiable'
p1261
sI1117
S'Network'
p1262
sI1118
S'housing'
p1263
sI1119
S'spots'
p1264
sI1120
S'frustration'
p1265
sI1121
S'9.7'
p1266
sI1122
S'pretax'
p1267
sI1123
S'function'
p1268
sI1124
S'fiscal'
p1269
sI1125
S'delivery'
p1270
sI1126
S'construction'
p1271
sI1127
S'Healthcare'
p1272
sI1128
S'valuation'
p1273
sI1129
S'evident'
p1274
sI1130
S'refinanced'
p1275
sI1131
S'smooth'
p1276
sI1132
S'placed'
p1277
sI1133
S'problem'
p1278
sI1134
S'CIA'
p1279
sI1135
S'West'
p1280
sI1136
S'recognize'
p1281
sI1137
S'condition'
p1282
sI1138
S'slowing'
p1283
sI1139
S'Containers'
p1284
sI1140
S'compared'
p1285
sI1141
S'nonetheless'
p1286
sI1142
S'Yesterday'
p1287
sI1143
S'lately'
p1288
sI1144
S'Volume'
p1289
sI1145
S'details'
p1290
sI1146
S'Corp.'
p1291
sI1147
S'reckless'
p1292
sI1148
S'oppression'
p1293
sI1149
S'outlets'
p1294
sI1150
S'chance'
p1295
sI1151
S'repeal'
p1296
sI1152
S'South'
p1297
sI1153
S'exposure'
p1298
sI1154
S'rule'
p1299
sI1155
S'compete'
p1300
sI1156
S'pension'
p1301
sI1157
S'rural'
p1302
sI1158
S'consolidated'
p1303
sI1159
S'magnetic'
p1304
sI1160
S'option'
p1305
sI1161
S'all'
p1306
sI1162
S'self-incrimination'
p1307
sI1163
S'Genentech'
p1308
sI1164
S'controversial'
p1309
sI1165
S'oldest'
p1310
sI1166
S'relationships'
p1311
sI1167
S'votes'
p1312
sI1168
S'voted'
p1313
sI1169
S'worth'
p1314
sI1170
S'postpone'
p1315
sI1171
S'investigator'
p1316
sI1172
S'samurai'
p1317
sI1173
S'announced'
p1318
sI1174
S'Hess'
p1319
sI1175
S'chef'
p1320
sI1176
S'Collins'
p1321
sI1177
S'machines'
p1322
sI1178
S'established'
p1323
sI1179
S'officially'
p1324
sI1180
S'consisting'
p1325
sI1181
S'told'
p1326
sI1182
S'human'
p1327
sI1183
S'conglomerate'
p1328
sI1184
S'protection'
p1329
sI1185
S'obtained'
p1330
sI1186
S'items'
p1331
sI1187
S'employees'
p1332
sI1188
S'Home'
p1333
sI1189
S'highly'
p1334
sI1190
S'Health'
p1335
sI1191
S'total'
p1336
sI1192
S'contractions'
p1337
sI1193
S'played'
p1338
sI1194
S'chooses'
p1339
sI1195
S'PaineWebber'
p1340
sI1196
S'FHA'
p1341
sI1197
S'emeritus'
p1342
sI1198
S'blocking'
p1343
sI1199
S'1991'
p1344
sI1200
S'1990'
p1345
sI1201
S'1993'
p1346
sI1202
S'1992'
p1347
sI1203
S'1994'
p1348
sI1204
S'work'
p1349
sI1205
S'era'
p1350
sI1206
S'indicated'
p1351
sI1207
S'cited'
p1352
sI1208
S'indicates'
p1353
sI1209
S'totaled'
p1354
sI1210
S'recovery'
p1355
sI1211
S'carriers'
p1356
sI1212
S'provide'
p1357
sI1213
S'Journal'
p1358
sI1214
S'interview'
p1359
sI1215
S'ordinary'
p1360
sI1216
S'beach'
p1361
sI1217
S'Zealand'
p1362
sI1218
S'after'
p1363
sI1219
S'lab'
p1364
sI1220
S'Ocean'
p1365
sI1221
S'Will'
p1366
sI1222
S'law'
p1367
sI1223
S'Fannie'
p1368
sI1224
S'order'
p1369
sI1225
S'office'
p1370
sI1226
S'satisfied'
p1371
sI1227
S'6.7'
p1372
sI1228
S'6.6'
p1373
sI1229
S'6.5'
p1374
sI1230
S'plastics'
p1375
sI1231
S'6.3'
p1376
sI1232
S'Inner'
p1377
sI1233
S'12.5'
p1378
sI1234
S'innovative'
p1379
sI1235
S'somewhere'
p1380
sI1236
S'50,000'
p1381
sI1237
S'production'
p1382
sI1238
S'Judge'
p1383
sI1239
S'then'
p1384
sI1240
S'them'
p1385
sI1241
S'break'
p1386
sI1242
S'they'
p1387
sI1243
S'bank'
p1388
sI1244
S'Control'
p1389
sI1245
S'7.96'
p1390
sI1246
S'7.90'
p1391
sI1247
S'7.91'
p1392
sI1248
S'lifted'
p1393
sI1249
S'crimes'
p1394
sI1250
S'Aside'
p1395
sI1251
S'Stelzer'
p1396
sI1252
S'network'
p1397
sI1253
S'vessels'
p1398
sI1254
S'disputed'
p1399
sI1255
S'veto'
p1400
sI1256
S'standard'
p1401
sI1257
S'admits'
p1402
sI1258
S'disputes'
p1403
sI1259
S'created'
p1404
sI1260
S'September'
p1405
sI1261
S'National'
p1406
sI1262
S'AMERICAN'
p1407
sI1263
S'oppose'
p1408
sI1264
S'U.K.'
p1409
sI1265
S'Mediobanca'
p1410
sI1266
S'Ackerman'
p1411
sI1267
S'another'
p1412
sI1268
S'comic'
p1413
sI1269
S'recapitalization'
p1414
sI1270
S'electronic'
p1415
sI1271
S'Azoff'
p1416
sI1272
S'illustrate'
p1417
sI1273
S'rated'
p1418
sI1274
S'takeovers'
p1419
sI1275
S'approximately'
p1420
sI1276
S'compromise'
p1421
sI1277
S'chanted'
p1422
sI1278
S'190-point'
p1423
sI1279
S'B'
p1424
sI1280
S'diversified'
p1425
sI1281
S'rejected'
p1426
sI1282
S'Sea'
p1427
sI1283
S'Sen'
p1428
sI1284
S'powers'
p1429
sI1285
S'interests'
p1430
sI1286
S'500,000'
p1431
sI1287
S'manner'
p1432
sI1288
S'Instead'
p1433
sI1289
S'Pravda'
p1434
sI1290
S'forced'
p1435
sI1291
S'strength'
p1436
sI1292
S'indexes'
p1437
sI1293
S'subjects'
p1438
sI1294
S'luxury'
p1439
sI1295
S'forces'
p1440
sI1296
S'completed'
p1441
sI1297
S'unsecured'
p1442
sI1298
S'circles'
p1443
sI1299
S'acquire'
p1444
sI1300
S'400,000'
p1445
sI1301
S'involving'
p1446
sI1302
S'Mead'
p1447
sI1303
S'phase'
p1448
sI1304
S'Bond'
p1449
sI1305
S'calculated'
p1450
sI1306
S'newcomers'
p1451
sI1307
S'investing'
p1452
sI1308
S'deeply'
p1453
sI1309
S'Institutes'
p1454
sI1310
S'voting'
p1455
sI1311
S'responded'
p1456
sI1312
S'reserve'
p1457
sI1313
S'European'
p1458
sI1314
S'Dec.'
p1459
sI1315
S'Sihanouk'
p1460
sI1316
S'Mixte'
p1461
sI1317
S'Republicans'
p1462
sI1318
S'discretionary'
p1463
sI1319
S'pursuing'
p1464
sI1320
S'adequate'
p1465
sI1321
S'do'
p1466
sI1322
S'de'
p1467
sI1323
S'preferred'
p1468
sI1324
S'yielded'
p1469
sI1325
S'vividly'
p1470
sI1326
S'Soviet'
p1471
sI1327
S'runs'
p1472
sI1328
S'Armstrong'
p1473
sI1329
S'covering'
p1474
sI1330
S'Clinic'
p1475
sI1331
S'secretary'
p1476
sI1332
S'Canada'
p1477
sI1333
S'Gorbachev'
p1478
sI1334
S'observed'
p1479
sI1335
S'projections'
p1480
sI1336
S'cattle'
p1481
sI1337
S'discussions'
p1482
sI1338
S'away'
p1483
sI1339
S'unable'
p1484
sI1340
S'cooperation'
p1485
sI1341
S'Prices'
p1486
sI1342
S'drawn'
p1487
sI1343
S'Technologies'
p1488
sI1344
S'we'
p1489
sI1345
S'terms'
p1490
sI1346
S'wo'
p1491
sI1347
S'clues'
p1492
sI1348
S'convertible'
p1493
sI1349
S'packages'
p1494
sI1350
S'received'
p1495
sI1351
S'steep'
p1496
sI1352
S'exceeds'
p1497
sI1353
S'requests'
p1498
sI1354
S'Feb.'
p1499
sI1355
S'tone'
p1500
sI1356
S'tons'
p1501
sI1357
S'Board'
p1502
sI1358
S'tony'
p1503
sI1359
S'telecommunications'
p1504
sI1360
S'strokes'
p1505
sI1361
S'drafting'
p1506
sI1362
S'dozens'
p1507
sI1363
S'duties'
p1508
sI1364
S'easy'
p1509
sI1365
S'Vice'
p1510
sI1366
S'applied'
p1511
sI1367
S'publicly'
p1512
sI1368
S'air'
p1513
sI1369
S'aid'
p1514
sI1370
S'property'
p1515
sI1371
S'launched'
p1516
sI1372
S'38.5'
p1517
sI1373
S'CVN'
p1518
sI1374
S'tissue'
p1519
sI1375
S'world-wide'
p1520
sI1376
S'Carolina'
p1521
sI1377
S'exile'
p1522
sI1378
S'confirmed'
p1523
sI1379
S'demonstration'
p1524
sI1380
S'Ill.'
p1525
sI1381
S'indictment'
p1526
sI1382
S'advertising'
p1527
sI1383
S'independent'
p1528
sI1384
S'Institute'
p1529
sI1385
S'hand'
p1530
sI1386
S'blamed'
p1531
sI1387
S'kept'
p1532
sI1388
S'1978'
p1533
sI1389
S'1976'
p1534
sI1390
S'1975'
p1535
sI1391
S'1971'
p1536
sI1392
S'client'
p1537
sI1393
S'the'
p1538
sI1394
S'Pete'
p1539
sI1395
S'Swank'
p1540
sI1396
S'quoted'
p1541
sI1397
S'Cambodia'
p1542
sI1398
S'thanks'
p1543
sI1399
S'firmed'
p1544
sI1400
S'adding'
p1545
sI1401
S'capacity-expansion'
p1546
sI1402
S'Gas'
p1547
sI1403
S'spread'
p1548
sI1404
S'board'
p1549
sI1405
S'designers'
p1550
sI1406
S'retreat'
p1551
sI1407
S'securities'
p1552
sI1408
S'night'
p1553
sI1409
S'security'
p1554
sI1410
S'S.'
p1555
sI1411
S'Sunbird'
p1556
sI1412
S'Commission'
p1557
sI1413
S'Lee'
p1558
sI1414
S'asking'
p1559
sI1415
S'Let'
p1560
sI1416
S'denied'
p1561
sI1417
S'participation'
p1562
sI1418
S'School'
p1563
sI1419
S'marketing'
p1564
sI1420
S'restructuring'
p1565
sI1421
S'post'
p1566
sI1422
S'properties'
p1567
sI1423
S'newspapers'
p1568
sI1424
S'months'
p1569
sI1425
S'Prince'
p1570
sI1426
S'banker'
p1571
sI1427
S'pays'
p1572
sI1428
S'capped'
p1573
sI1429
S'pollen-inhibiting'
p1574
sI1430
S'legislation'
p1575
sI1431
S'fight'
p1576
sI1432
S'way'
p1577
sI1433
S'was'
p1578
sI1434
S'war'
p1579
sI1435
S'interest-rate'
p1580
sI1436
S'becoming'
p1581
sI1437
S'System'
p1582
sI1438
S'mysterious'
p1583
sI1439
S'true'
p1584
sI1440
S'reset'
p1585
sI1441
S'high-quality'
p1586
sI1442
S'maximum'
p1587
sI1443
S'complaint'
p1588
sI1444
S'unusually'
p1589
sI1445
S'private-sector'
p1590
sI1446
S'Some'
p1591
sI1447
S'evidence'
p1592
sI1448
S'promised'
p1593
sI1449
S'knows'
p1594
sI1450
S'weakened'
p1595
sI1451
S'stake'
p1596
sI1452
S'topped'
p1597
sI1453
S'negotiators'
p1598
sI1454
S'interested'
p1599
sI1455
S'holding'
p1600
sI1456
S'test'
p1601
sI1457
S'Later'
p1602
sI1458
S'Wilmington'
p1603
sI1459
S'Trial'
p1604
sI1460
S'scores'
p1605
sI1461
S'Estate'
p1606
sI1462
S'Banking'
p1607
sI1463
S'normally'
p1608
sI1464
S'affidavit'
p1609
sI1465
S'together'
p1610
sI1466
S'concept'
p1611
sI1467
S'pilots'
p1612
sI1468
S'global'
p1613
sI1469
S'known'
p1614
sI1470
S'battle'
p1615
sI1471
S'certainly'
p1616
sI1472
S'Sept.'
p1617
sI1473
S'producing'
p1618
sI1474
S'compensate'
p1619
sI1475
S'division'
p1620
sI1476
S'blase'
p1621
sI1477
S'liability'
p1622
sI1478
S'automobiles'
p1623
sI1479
S'10-year'
p1624
sI1480
S'trouble'
p1625
sI1481
S'blast'
p1626
sI1482
S'nerve'
p1627
sI1483
S'Jersey'
p1628
sI1484
S'Just'
p1629
sI1485
S'guy'
p1630
sI1486
S'George'
p1631
sI1487
S'revolution'
p1632
sI1488
S'cost'
p1633
sI1489
S'Bert'
p1634
sI1490
S'appear'
p1635
sI1491
S'shares'
p1636
sI1492
S'Ford'
p1637
sI1493
S'During'
p1638
sI1494
S'appeal'
p1639
sI1495
S'collateral'
p1640
sI1496
S'predicting'
p1641
sI1497
S'genes'
p1642
sI1498
S'English'
p1643
sI1499
S'appears'
p1644
sI1500
S'change'
p1645
sI1501
S'sending'
p1646
sI1502
S'Dean'
p1647
sI1503
S'trial'
p1648
sI1504
S'usually'
p1649
sI1505
S'retired'
p1650
sI1506
S'lending'
p1651
sI1507
S'rarely'
p1652
sI1508
S'market'
p1653
sI1509
S'terminal'
p1654
sI1510
S'prove'
p1655
sI1511
S'live'
p1656
sI1512
S'jam'
p1657
sI1513
S'club'
p1658
sI1514
S'minimum-wage'
p1659
sI1515
S'Mount'
p1660
sI1516
S'clue'
p1661
sI1517
S'organizations'
p1662
sI1518
S'car'
p1663
sI1519
S'cap'
p1664
sI1520
S'can'
p1665
sI1521
S'spy'
p1666
sI1522
S'expanding'
p1667
sI1523
S'chip'
p1668
sI1524
S'topic'
p1669
sI1525
S'phrase'
p1670
sI1526
S'occur'
p1671
sI1527
S'Walter'
p1672
sI1528
S'Dataproducts'
p1673
sI1529
S'discussion'
p1674
sI1530
S'write'
p1675
sI1531
S'economy'
p1676
sI1532
S'product'
p1677
sI1533
S'service-industry'
p1678
sI1534
S'produce'
p1679
sI1535
S'Martin'
p1680
sI1536
S'court'
p1681
sI1537
S'remember'
p1682
sI1538
S'Metropolitan'
p1683
sI1539
S'futures'
p1684
sI1540
S'acrimony'
p1685
sI1541
S'serving'
p1686
sI1542
S'raised'
p1687
sI1543
S'ended'
p1688
sI1544
S'Genetic'
p1689
sI1545
S'cold'
p1690
sI1546
S'still'
p1691
sI1547
S'reacting'
p1692
sI1548
S'window'
p1693
sI1549
S'100,000'
p1694
sI1550
S'sweetened'
p1695
sI1551
S'introduce'
p1696
sI1552
S'half'
p1697
sI1553
S'not'
p1698
sI1554
S'committees'
p1699
sI1555
S'R.'
p1700
sI1556
S'now'
p1701
sI1557
S'provision'
p1702
sI1558
S'discuss'
p1703
sI1559
S'nor'
p1704
sI1560
S'drop'
p1705
sI1561
S'entirely'
p1706
sI1562
S'fired'
p1707
sI1563
S'Television'
p1708
sI1564
S'challenges'
p1709
sI1565
S'year'
p1710
sI1566
S'calling'
p1711
sI1567
S'pills'
p1712
sI1568
S'tried'
p1713
sI1569
S'shown'
p1714
sI1570
S'accomplish'
p1715
sI1571
S'opened'
p1716
sI1572
S'bullish'
p1717
sI1573
S'space'
p1718
sI1574
S'increase'
p1719
sI1575
S'viable'
p1720
sI1576
S'shows'
p1721
sI1577
S'defenses'
p1722
sI1578
S'cars'
p1723
sI1579
S'repurchase'
p1724
sI1580
S'obligation'
p1725
sI1581
S'care'
p1726
sI1582
S'fixed'
p1727
sI1583
S'vehemently'
p1728
sI1584
S'invitation'
p1729
sI1585
S'Hungary'
p1730
sI1586
S'promotion'
p1731
sI1587
S'Even'
p1732
sI1588
S'initial'
p1733
sI1589
S'There'
p1734
sI1590
S'Asia'
p1735
sI1591
S'per-share'
p1736
sI1592
S'directly'
p1737
sI1593
S'drove'
p1738
sI1594
S'tomorrow'
p1739
sI1595
S'size'
p1740
sI1596
S'sheet'
p1741
sI1597
S'caught'
p1742
sI1598
S'free-lance'
p1743
sI1599
S'friend'
p1744
sI1600
S'mostly'
p1745
sI1601
S'that'
p1746
sI1602
S'brains'
p1747
sI1603
S'than'
p1748
sI1604
S'Inc.'
p1749
sI1605
S'television'
p1750
sI1606
S'dialogue'
p1751
sI1607
S'transferred'
p1752
sI1608
S'Orkem'
p1753
sI1609
S'investors'
p1754
sI1610
S'remained'
p1755
sI1611
S'premier'
p1756
sI1612
S'anger'
p1757
sI1613
S'recover'
p1758
sI1614
S'form'
p1759
sI1615
S'veteran'
p1760
sI1616
S'equipment'
p1761
sI1617
S'begin'
p1762
sI1618
S'SUNY'
p1763
sI1619
S'price'
p1764
sI1620
S'dream'
p1765
sI1621
S'reform'
p1766
sI1622
S'implications'
p1767
sI1623
S'professional'
p1768
sI1624
S'typically'
p1769
sI1625
S'filing'
p1770
sI1626
S'Sidley'
p1771
sI1627
S'Northeast'
p1772
sI1628
S'3.75'
p1773
sI1629
S'discovered'
p1774
sI1630
S'ground'
p1775
sI1631
S'upgrade'
p1776
sI1632
S'Worse'
p1777
sI1633
S'title'
p1778
sI1634
S'Kansas'
p1779
sI1635
S'only'
p1780
sI1636
S'truly'
p1781
sI1637
S'seldom'
p1782
sI1638
S'losers'
p1783
sI1639
S'concert'
p1784
sI1640
S'committed'
p1785
sI1641
S'elected'
p1786
sI1642
S'concern'
p1787
sI1643
S'Mikhail'
p1788
sI1644
S'Berlin'
p1789
sI1645
S'Members'
p1790
sI1646
S'between'
p1791
sI1647
S'Johnson'
p1792
sI1648
S'article'
p1793
sI1649
S'embraces'
p1794
sI1650
S'NCNB'
p1795
sI1651
S'flaps'
p1796
sI1652
S'comes'
p1797
sI1653
S'nearby'
p1798
sI1654
S'passenger'
p1799
sI1655
S'Pictures'
p1800
sI1656
S'hybrids'
p1801
sI1657
S'jeans'
p1802
sI1658
S'Sachs'
p1803
sI1659
S'learning'
p1804
sI1660
S'Leader'
p1805
sI1661
S'lawsuit'
p1806
sI1662
S'systems'
p1807
sI1663
S'observers'
p1808
sI1664
S'stems'
p1809
sI1665
S'suspected'
p1810
sI1666
S'developing'
p1811
sI1667
S'these'
p1812
sI1668
S'Reagan'
p1813
sI1669
S'sorghum'
p1814
sI1670
S'exercisable'
p1815
sI1671
S'soil'
p1816
sI1672
S'health-care'
p1817
sI1673
S'worry'
p1818
sI1674
S'Israel'
p1819
sI1675
S'develop'
p1820
sI1676
S'media'
p1821
sI1677
S'inquiry'
p1822
sI1678
S'Swanson'
p1823
sI1679
S'complained'
p1824
sI1680
S'charges'
p1825
sI1681
S'constitutional'
p1826
sI1682
S'Rep.'
p1827
sI1683
S'severe'
p1828
sI1684
S'charged'
p1829
sI1685
S'Service'
p1830
sI1686
S'superconductors'
p1831
sI1687
S'Minn.'
p1832
sI1688
S'valuable'
p1833
sI1689
S'sweeping'
p1834
sI1690
S'touch'
p1835
sI1691
S'speed'
p1836
sI1692
S'Sterling'
p1837
sI1693
S'renewed'
p1838
sI1694
S'thinking'
p1839
sI1695
S'treatment'
p1840
sI1696
S'Spielvogel'
p1841
sI1697
S'real'
p1842
sI1698
S'rules'
p1843
sI1699
S'early'
p1844
sI1700
S'listening'
p1845
sI1701
S'using'
p1846
sI1702
S'execution'
p1847
sI1703
S'demonstrations'
p1848
sI1704
S'ruled'
p1849
sI1705
S'Shop'
p1850
sI1706
S'pounds'
p1851
sI1707
S'annually'
p1852
sI1708
S'benefit'
p1853
sI1709
S'Suns'
p1854
sI1710
S'output'
p1855
sI1711
S'Before'
p1856
sI1712
S'Mark'
p1857
sI1713
S'Earlier'
p1858
sI1714
S'recorded'
p1859
sI1715
S'conservative'
p1860
sI1716
S'dealership'
p1861
sI1717
S'deficit'
p1862
sI1718
S'Hunt'
p1863
sI1719
S'assembly'
p1864
sI1720
S'business'
p1865
sI1721
S'containerboard'
p1866
sI1722
S'exciting'
p1867
sI1723
S'central'
p1868
sI1724
S'S.A.'
p1869
sI1725
S'Chevron'
p1870
sI1726
S'testimony'
p1871
sI1727
S'8.50'
p1872
sI1728
S'protests'
p1873
sI1729
S'involvement'
p1874
sI1730
S'operator'
p1875
sI1731
S'your'
p1876
sI1732
S'intervention'
p1877
sI1733
S'area'
p1878
sI1734
S'Citicorp'
p1879
sI1735
S'low'
p1880
sI1736
S'lot'
p1881
sI1737
S'delayed'
p1882
sI1738
S'trying'
p1883
sI1739
S'hire'
p1884
sI1740
S'fraud'
p1885
sI1741
S'5/8'
p1886
sI1742
S'Marston'
p1887
sI1743
S'600'
p1888
sI1744
S'moved'
p1889
sI1745
S'sales'
p1890
sI1746
S'moves'
p1891
sI1747
S'unwelcome'
p1892
sI1748
S'Jake'
p1893
sI1749
S'you'
p1894
sI1750
S'forcing'
p1895
sI1751
S'poor'
p1896
sI1752
S'Great'
p1897
sI1753
S'coverage'
p1898
sI1754
S'building'
p1899
sI1755
S'Mexican'
p1900
sI1756
S'Tropics'
p1901
sI1757
S'overseas'
p1902
sI1758
S'month'
p1903
sI1759
S'deadline'
p1904
sI1760
S'Take'
p1905
sI1761
S'carpet'
p1906
sI1762
S'Brown'
p1907
sI1763
S'referring'
p1908
sI1764
S'sustain'
p1909
sI1765
S'very'
p1910
sI1766
S'mph'
p1911
sI1767
S'decide'
p1912
sI1768
S'--'
p1913
sI1769
S'Seidman'
p1914
sI1770
S'3.18'
p1915
sI1771
S'HUD'
p1916
sI1772
S'Korea'
p1917
sI1773
S'consumers'
p1918
sI1774
S'Elanco'
p1919
sI1775
S'induce'
p1920
sI1776
S'certificates'
p1921
sI1777
S'learned'
p1922
sI1778
S'turmoil'
p1923
sI1779
S'Alltel'
p1924
sI1780
S'answers'
p1925
sI1781
S'tracks'
p1926
sI1782
S'excess'
p1927
sI1783
S'Nahas'
p1928
sI1784
S'strong'
p1929
sI1785
S'Borden'
p1930
sI1786
S'ahead'
p1931
sI1787
S'inspired'
p1932
sI1788
S'losses'
p1933
sI1789
S'Dole'
p1934
sI1790
S'amount'
p1935
sI1791
S'family'
p1936
sI1792
S'aimed'
p1937
sI1793
S'trained'
p1938
sI1794
S'conventional'
p1939
sI1795
S'takes'
p1940
sI1796
S'one-day'
p1941
sI1797
S'Kirgizia'
p1942
sI1798
S'taken'
p1943
sI1799
S'implied'
p1944
sI1800
S'lowering'
p1945
sI1801
S'excuse'
p1946
sI1802
S'So'
p1947
sI1803
S'broke'
p1948
sI1804
S'factories'
p1949
sI1805
S'nine'
p1950
sI1806
S'budgets'
p1951
sI1807
S'Boston'
p1952
sI1808
S'history'
p1953
sI1809
S'adviser'
p1954
sI1810
S'pushed'
p1955
sI1811
S'processors'
p1956
sI1812
S'surpassed'
p1957
sI1813
S'threat'
p1958
sI1814
S'tries'
p1959
sI1815
S'Lexus'
p1960
sI1816
S'a'
p1961
sI1817
S'criticize'
p1962
sI1818
S'Mexico'
p1963
sI1819
S'overnight'
p1964
sI1820
S'Deep'
p1965
sI1821
S'renewing'
p1966
sI1822
S'ego'
p1967
sI1823
S'banks'
p1968
sI1824
S'Domenici'
p1969
sI1825
S'help'
p1970
sI1826
S'administration'
p1971
sI1827
S'soon'
p1972
sI1828
S'held'
p1973
sI1829
S'committee'
p1974
sI1830
S'clarinet'
p1975
sI1831
S'taxpayer'
p1976
sI1832
S'actually'
p1977
sI1833
S'Phelan'
p1978
sI1834
S'disclosed'
p1979
sI1835
S'peanuts'
p1980
sI1836
S'lire'
p1981
sI1837
S'Moody'
p1982
sI1838
S'evening'
p1983
sI1839
S'food'
p1984
sI1840
S'resigned'
p1985
sI1841
S'anticipates'
p1986
sI1842
S'Senior'
p1987
sI1843
S'well-known'
p1988
sI1844
S'stopper'
p1989
sI1845
S'occasions'
p1990
sI1846
S'semiannual'
p1991
sI1847
S'anti-smoking'
p1992
sI1848
S'stopped'
p1993
sI1849
S'Council'
p1994
sI1850
S'SFE'
p1995
sI1851
S'trailer'
p1996
sI1852
S'heavy'
p1997
sI1853
S'beyond'
p1998
sI1854
S'event'
p1999
sI1855
S'third-largest'
p2000
sI1856
S'blue-chip'
p2001
sI1857
S'since'
p2002
sI1858
S'testify'
p2003
sI1859
S'safety'
p2004
sI1860
S'7'
p2005
sI1861
S'Prudential-Bache'
p2006
sI1862
S'issue'
p2007
sI1863
S'Plaza'
p2008
sI1864
S'According'
p2009
sI1865
S'houses'
p2010
sI1866
S'reason'
p2011
sI1867
S'base'
p2012
sI1868
S'ask'
p2013
sI1869
S'steelmakers'
p2014
sI1870
S'Investments'
p2015
sI1871
S'Researchers'
p2016
sI1872
S'businessmen'
p2017
sI1873
S'reflected'
p2018
sI1874
S'horse'
p2019
sI1875
S'airborne'
p2020
sI1876
S'station'
p2021
sI1877
S'Delta'
p2022
sI1878
S'hundred'
p2023
sI1879
S'selling'
p2024
sI1880
S'financing'
p2025
sI1881
S'scheme'
p2026
sI1882
S'moderate'
p2027
sI1883
S'Officials'
p2028
sI1884
S'store'
p2029
sI1885
S'attorney'
p2030
sI1886
S'toward'
p2031
sI1887
S'ousted'
p2032
sI1888
S'subsidies'
p2033
sI1889
S'procedural'
p2034
sI1890
S'God'
p2035
sI1891
S'Peace'
p2036
sI1892
S'Douglas'
p2037
sI1893
S'substantial'
p2038
sI1894
S'Fortney'
p2039
sI1895
S'organs'
p2040
sI1896
S'evasion'
p2041
sI1897
S'patterns'
p2042
sI1898
S'Price'
p2043
sI1899
S'officers'
p2044
sI1900
S'With'
p2045
sI1901
S'hired'
p2046
sI1902
S'The'
p2047
sI1903
S'approved'
p2048
sI1904
S'muscle'
p2049
sI1905
S'Institutional'
p2050
sI1906
S'performances'
p2051
sI1907
S'clear'
p2052
sI1908
S'latest'
p2053
sI1909
S'stalked'
p2054
sI1910
S'Norris'
p2055
sI1911
S'justice'
p2056
sI1912
S'French'
p2057
sI1913
S'flights'
p2058
sI1914
S'pretty'
p2059
sI1915
S'Lyonnais'
p2060
sI1916
S'While'
p2061
sI1917
S'grew'
p2062
sI1918
S'3/4'
p2063
sI1919
S'competing'
p2064
sI1920
S'during'
p2065
sI1921
S'soft-drink'
p2066
sI1922
S'Maxima'
p2067
sI1923
S'interim'
p2068
sI1924
S'throwing'
p2069
sI1925
S'Rosen'
p2070
sI1926
S'France'
p2071
sI1927
S'culture'
p2072
sI1928
S'close'
p2073
sI1929
S'probable'
p2074
sI1930
S'Blair'
p2075
sI1931
S'won'
p2076
sI1932
S'probably'
p2077
sI1933
S'conditions'
p2078
sI1934
S'missing'
p2079
sI1935
S'spun'
p2080
sI1936
S'spray'
p2081
sI1937
S'ranked'
p2082
sI1938
S'both'
p2083
sI1939
S'Lehman'
p2084
sI1940
S'second-largest'
p2085
sI1941
S'Steve'
p2086
sI1942
S'sensitive'
p2087
sI1943
S'headed'
p2088
sI1944
S'Ltd'
p2089
sI1945
S'described'
p2090
sI1946
S'Most'
p2091
sI1947
S'Protection'
p2092
sI1948
S'California'
p2093
sI1949
S'partly'
p2094
sI1950
S'else'
p2095
sI1951
S'lives'
p2096
sI1952
S'bidding'
p2097
sI1953
S'second-quarter'
p2098
sI1954
S'pact'
p2099
sI1955
S'look'
p2100
sI1956
S'governor'
p2101
sI1957
S'pace'
p2102
sI1958
S'while'
p2103
sI1959
S'match'
p2104
sI1960
S'Industries'
p2105
sI1961
S'costly'
p2106
sI1962
S'voters'
p2107
sI1963
S'Fingers'
p2108
sI1964
S'anymore'
p2109
sI1965
S'grant'
p2110
sI1966
S'vulnerable'
p2111
sI1967
S'grand'
p2112
sI1968
S'conflict'
p2113
sI1969
S'used'
p2114
sI1970
S'temporary'
p2115
sI1971
S'Transmission'
p2116
sI1972
S'J.C.'
p2117
sI1973
S'uses'
p2118
sI1974
S'user'
p2119
sI1975
S'older'
p2120
sI1976
S'five'
p2121
sI1977
S'Exchequer'
p2122
sI1978
S'settlements'
p2123
sI1979
S'retirement'
p2124
sI1980
g19
sI1981
S'over-the-counter'
p2125
sI1982
S'informal'
p2126
sI1983
S'guaranteed'
p2127
sI1984
S'stock-market'
p2128
sI1985
S'Berkeley'
p2129
sI1986
S'Drexel'
p2130
sI1987
S'guarantees'
p2131
sI1988
S'remaining'
p2132
sI1989
S'chairman'
p2133
sI1990
S'...'
p2134
sI1991
S'evaluate'
p2135
sI1992
S'showing'
p2136
sI1993
S'Suisse'
p2137
sI1994
S'game'
p2138
sI1995
S'stimulators'
p2139
sI1996
S'Cincinnati'
p2140
sI1997
S'popular'
p2141
sI1998
S'licensing'
p2142
sI1999
S'creation'
p2143
sI2000
S'some'
p2144
sI2001
S'economic'
p2145
sI2002
S'fanfare'
p2146
sI2003
S'delivered'
p2147
sI2004
S'Pittsburgh'
p2148
sI2005
S'Moscow'
p2149
sI2006
S'Massachusetts'
p2150
sI2007
S'everybody'
p2151
sI2008
S'eating'
p2152
sI2009
S'first-time'
p2153
sI2010
S'step'
p2154
sI2011
S'Pennzoil'
p2155
sI2012
S'pitchers'
p2156
sI2013
S'abroad'
p2157
sI2014
S'cigarette'
p2158
sI2015
S'Committee'
p2159
sI2016
S'positive'
p2160
sI2017
S'block'
p2161
sI2018
S'seeing'
p2162
sI2019
S'Eli'
p2163
sI2020
S'within'
p2164
sI2021
S'Their'
p2165
sI2022
S'Composite'
p2166
sI2023
S'79'
p2167
sI2024
S'KGB'
p2168
sI2025
S'manufacture'
p2169
sI2026
S'himself'
p2170
sI2027
S'registered'
p2171
sI2028
S'anywhere'
p2172
sI2029
S'specialty'
p2173
sI2030
S'branch'
p2174
sI2031
S'Switzerland'
p2175
sI2032
S'cautiously'
p2176
sI2033
S'similar'
p2177
sI2034
S'ordered'
p2178
sI2035
S'adults'
p2179
sI2036
S'To'
p2180
sI2037
S'Edward'
p2181
sI2038
S'cotton'
p2182
sI2039
S'amounts'
p2183
sI2040
S'G-7'
p2184
sI2041
S'A.'
p2185
sI2042
S'politicians'
p2186
sI2043
S'Wash.'
p2187
sI2044
S'department'
p2188
sI2045
S'draw'
p2189
sI2046
S'AG'
p2190
sI2047
S're-election'
p2191
sI2048
S'T.'
p2192
sI2049
S'drag'
p2193
sI2050
S'Sentra'
p2194
sI2051
S'revamped'
p2195
sI2052
S'urged'
p2196
sI2053
S'Ad'
p2197
sI2054
S'required'
p2198
sI2055
S'Al'
p2199
sI2056
S'An'
p2200
sI2057
S'As'
p2201
sI2058
S'At'
p2202
sI2059
S'Geiger'
p2203
sI2060
S'Soviets'
p2204
sI2061
S'requires'
p2205
sI2062
S'avoid'
p2206
sI2063
S'Warsaw'
p2207
sI2064
S'fixed-rate'
p2208
sI2065
S'Pell'
p2209
sI2066
S'go'
p2210
sI2067
S'compact'
p2211
sI2068
S'Not'
p2212
sI2069
S'Now'
p2213
sI2070
S'friendly'
p2214
sI2071
S'Young'
p2215
sI2072
S'Canadian'
p2216
sI2073
S'Mrs.'
p2217
sI2074
S'wave'
p2218
sI2075
S'Investors'
p2219
sI2076
S'meant'
p2220
sI2077
S'positions'
p2221
sI2078
S'8.95'
p2222
sI2079
S'2.25'
p2223
sI2080
S'Index'
p2224
sI2081
S'Equipment'
p2225
sI2082
S'picked'
p2226
sI2083
S'plays'
p2227
sI2084
S'cell'
p2228
sI2085
S';'
p2229
sI2086
S'America'
p2230
sI2087
S'filings'
p2231
sI2088
S'stance'
p2232
sI2089
S'commercial'
p2233
sI2090
S'following'
p2234
sI2091
S'Green'
p2235
sI2092
S'Likewise'
p2236
sI2093
S'Back'
p2237
sI2094
S'Bach'
p2238
sI2095
S'products'
p2239
sI2096
S'gene'
p2240
sI2097
S'danger'
p2241
sI2098
S'win'
p2242
sI2099
S'clout'
p2243
sI2100
S'remains'
p2244
sI2101
S'loans'
p2245
sI2102
S'estimated'
p2246
sI2103
S'vehicle'
p2247
sI2104
S'means'
p2248
sI2105
S'panel'
p2249
sI2106
S'historically'
p2250
sI2107
S'reflects'
p2251
sI2108
S'bureaucracy'
p2252
sI2109
S'1/4'
p2253
sI2110
S'Appropriations'
p2254
sI2111
S'started'
p2255
sI2112
S'Markus'
p2256
sI2113
S'testified'
p2257
sI2114
S'Wednesday'
p2258
sI2115
S'missile'
p2259
sI2116
S'appointed'
p2260
sI2117
S'announcing'
p2261
sI2118
S'ride'
p2262
sI2119
S'averaged'
p2263
sI2120
S'recession'
p2264
sI2121
S'crossed'
p2265
sI2122
S'meet'
p2266
sI2123
S'drops'
p2267
sI2124
S'control'
p2268
sI2125
S'Israeli'
p2269
sI2126
S'Mr.'
p2270
sI2127
S'pulling'
p2271
sI2128
S'dictation'
p2272
sI2129
S'sought'
p2273
sI2130
S'hit'
p2274
sI2131
S'meanwhile'
p2275
sI2132
S'arrangement'
p2276
sI2133
S'Bowater'
p2277
sI2134
S'immoral'
p2278
sI2135
S'British'
p2279
sI2136
S'advocates'
p2280
sI2137
S'agenda'
p2281
sI2138
S'5,000'
p2282
sI2139
S'Gonzalez'
p2283
sI2140
S'soggy'
p2284
sI2141
S'Smith'
p2285
sI2142
S'alliance'
p2286
sI2143
S'including'
p2287
sI2144
S'costume'
p2288
sI2145
S'3/8'
p2289
sI2146
S'mentioned'
p2290
sI2147
S'Exchange'
p2291
sI2148
S'Saatchi'
p2292
sI2149
S'non-invasive'
p2293
sI2150
S'auto'
p2294
sI2151
S'hands'
p2295
sI2152
S'front'
p2296
sI2153
S'Guber-Peters'
p2297
sI2154
S'Supreme'
p2298
sI2155
S'registrations'
p2299
sI2156
S'slide'
p2300
sI2157
S"O'Kicki"
p2301
sI2158
S'Statistics'
p2302
sI2159
S'700'
p2303
sI2160
S'Liberty'
p2304
sI2161
S'designer'
p2305
sI2162
S'variety'
p2306
sI2163
S'measure'
p2307
sI2164
S'margins'
p2308
sI2165
S'IFI'
p2309
sI2166
S'special'
p2310
sI2167
S'entertainment'
p2311
sI2168
S'critics'
p2312
sI2169
S'cause'
p2313
sI2170
S'1987'
p2314
sI2171
S'completely'
p2315
sI2172
S'20,000'
p2316
sI2173
S'hostile'
p2317
sI2174
S'Owen'
p2318
sI2175
S'diminished'
p2319
sI2176
S'keep'
p2320
sI2177
S'counterpart'
p2321
sI2178
S'succeeds'
p2322
sI2179
S'powerful'
p2323
sI2180
S'unsupported'
p2324
sI2181
S'improving'
p2325
sI2182
S'precisely'
p2326
sI2183
S'quality'
p2327
sI2184
S'management'
p2328
sI2185
S'bears'
p2329
sI2186
S'relations'
p2330
sI2187
S'attach'
p2331
sI2188
S'attack'
p2332
sI2189
S'perfectly'
p2333
sI2190
S'exactly'
p2334
sI2191
S'chemicals'
p2335
sI2192
S'manipulation'
p2336
sI2193
S'overwhelming'
p2337
sI2194
S'Bognato'
p2338
sI2195
S'submitted'
p2339
sI2196
S'claim'
p2340
sI2197
S'maybe'
p2341
sI2198
S'providing'
p2342
sI2199
S'Information'
p2343
sI2200
S'Richard'
p2344
sI2201
S'unchanged'
p2345
sI2202
S'2.3'
p2346
sI2203
S'Other'
p2347
sI2204
S'need'
p2348
sI2205
S'border'
p2349
sI2206
S'Development'
p2350
sI2207
S'instrumentation'
p2351
sI2208
S'Batman'
p2352
sI2209
S'2.6'
p2353
sI2210
S'instance'
p2354
sI2211
S'issuing'
p2355
sI2212
S'2.5'
p2356
sI2213
S'truck'
p2357
sI2214
S'expires'
p2358
sI2215
S'Jenrette'
p2359
sI2216
S'consequences'
p2360
sI2217
S'insured'
p2361
sI2218
S'lowered'
p2362
sI2219
S'conventional-arms'
p2363
sI2220
S'impression'
p2364
sI2221
S'emerging'
p2365
sI2222
S'Public'
p2366
sI2223
S'partners'
p2367
sI2224
S'based'
p2368
sI2225
S'earned'
p2369
sI2226
S'('
p2370
sI2227
S'bases'
p2371
sI2228
S'employee'
p2372
sI2229
S'employed'
p2373
sI2230
S'overall'
p2374
sI2231
S'120'
p2375
sI2232
S'joint'
p2376
sI2233
S'122'
p2377
sI2234
S'Newport'
p2378
sI2235
S'On'
p2379
sI2236
S'consecutive'
p2380
sI2237
S'buyer'
p2381
sI2238
S'procedures'
p2382
sI2239
S'gray'
p2383
sI2240
S'processes'
p2384
sI2241
S'tobacco'
p2385
sI2242
S'hiring'
p2386
sI2243
S'she'
p2387
sI2244
S'Gnu-Emacs'
p2388
sI2245
S'official'
p2389
sI2246
S'officials'
p2390
sI2247
S'usefulness'
p2391
sI2248
S'desperate'
p2392
sI2249
S'operated'
p2393
sI2250
S'Marunouchi'
p2394
sI2251
S'Wisconsin'
p2395
sI2252
S'written'
p2396
sI2253
S'tens'
p2397
sI2254
S'neither'
p2398
sI2255
S'Transgenic'
p2399
sI2256
S'comparable'
p2400
sI2257
S'sole'
p2401
sI2258
S'Sen.'
p2402
sI2259
S'importance'
p2403
sI2260
S'interfere'
p2404
sI2261
S'efficiency'
p2405
sI2262
S'key'
p2406
sI2263
S'Nekoosa'
p2407
sI2264
S'group'
p2408
sI2265
S'distribution'
p2409
sI2266
S'hits'
p2410
sI2267
S'limits'
p2411
sI2268
S'career'
p2412
sI2269
S'minds'
p2413
sI2270
S'admit'
p2414
sI2271
S'a.m.'
p2415
sI2272
S'Los'
p2416
sI2273
S'maximize'
p2417
sI2274
S'addition'
p2418
sI2275
S'controlled'
p2419
sI2276
S'league'
p2420
sI2277
S'Wellington'
p2421
sI2278
S'World'
p2422
sI2279
S'smoking'
p2423
sI2280
S'And'
p2424
sI2281
S'300ZX'
p2425
sI2282
S'owns'
p2426
sI2283
S'Any'
p2427
sI2284
S'examiner'
p2428
sI2285
S'examined'
p2429
sI2286
S'Ariz.'
p2430
sI2287
S'You'
p2431
sI2288
S'balloon'
p2432
sI2289
S'Bear'
p2433
sI2290
S'proceeds'
p2434
sI2291
S'parts'
p2435
sI2292
S'party'
p2436
sI2293
S'effect'
p2437
sI2294
S'emphasized'
p2438
sI2295
S'frequently'
p2439
sI2296
S'Mitchell'
p2440
sI2297
S'single'
p2441
sI2298
S'destruction'
p2442
sI2299
S'transaction'
p2443
sI2300
S'well'
p2444
sI2301
S'increasingly'
p2445
sI2302
S'Ultimately'
p2446
sI2303
S'sources'
p2447
sI2304
S'Chairman'
p2448
sI2305
S'deposits'
p2449
sI2306
S'maintaining'
p2450
sI2307
S'Despite'
p2451
sI2308
S'0.5'
p2452
sI2309
S'balloons'
p2453
sI2310
S'By'
p2454
sI2311
S'ample'
p2455
sI2312
S'burden'
p2456
sI2313
S'immediately'
p2457
sI2314
S'prominent'
p2458
sI2315
S'loss'
p2459
sI2316
S'England'
p2460
sI2317
S'Aug.'
p2461
sI2318
S'lost'
p2462
sI2319
S'B.'
p2463
sI2320
S'payments'
p2464
sI2321
S'lose'
p2465
sI2322
S'Unix'
p2466
sI2323
S'arbitrage'
p2467
sI2324
S'February'
p2468
sI2325
S'Mason'
p2469
sI2326
S'home'
p2470
sI2327
S'leery'
p2471
sI2328
S'Ifint'
p2472
sI2329
S'Bull'
p2473
sI2330
S'filers'
p2474
sI2331
S'?'
p2475
sI2332
S'expansion'
p2476
sI2333
S'prohibited'
p2477
sI2334
S'Microsoft'
p2478
sI2335
S'freedom'
p2479
sI2336
S'recognized'
p2480
sI2337
S'stakes'
p2481
sI2338
S'previously'
p2482
sI2339
S'Internal'
p2483
sI2340
S'Nakamura'
p2484
sI2341
S'utility'
p2485
sI2342
S'accused'
p2486
sI2343
S'additional'
p2487
sI2344
S'Lawrence'
p2488
sI2345
S'lagged'
p2489
sI2346
S'imperial'
p2490
sI2347
S'Stearns'
p2491
sI2348
S'Edelson'
p2492
sI2349
S'agrees'
p2493
sI2350
S'gain'
p2494
sI2351
S'highest'
p2495
sI2352
S'he'
p2496
sI2353
S'Industrial'
p2497
sI2354
S'signed'
p2498
sI2355
S'limit'
p2499
sI2356
S'piece'
p2500
sI2357
S'display'
p2501
sI2358
S'marketplace'
p2502
sI2359
S'devise'
p2503
sI2360
S'reservations'
p2504
sI2361
S'beats'
p2505
sI2362
S'education'
p2506
sI2363
S'contest'
p2507
sI2364
S'Jr.'
p2508
sI2365
S'Wells'
p2509
sI2366
S'Besides'
p2510
sI2367
S'Hees'
p2511
sI2368
S'Like'
p2512
sI2369
S'stay'
p2513
sI2370
S'deficit-reduction'
p2514
sI2371
S'Morgan'
p2515
sI2372
S'deter'
p2516
sI2373
S'friends'
p2517
sI2374
S'portion'
p2518
sI2375
S'protest'
p2519
sI2376
S'aides'
p2520
sI2377
S'consists'
p2521
sI2378
S'whose'
p2522
sI2379
S'Honda'
p2523
sI2380
S'bailout'
p2524
sI2381
S'swap'
p2525
sI2382
S'Pressed'
p2526
sI2383
S'reforms'
p2527
sI2384
S'affect'
p2528
sI2385
S'sleek'
p2529
sI2386
S'vast'
p2530
sI2387
S'Thomas'
p2531
sI2388
S'crops'
p2532
sI2389
S'companies'
p2533
sI2390
S'solution'
p2534
sI2391
S'unrelated'
p2535
sI2392
S'cholesterol'
p2536
sI2393
S'heading'
p2537
sI2394
S'force'
p2538
sI2395
S'likely'
p2539
sI2396
S'even'
p2540
sI2397
S'Eventually'
p2541
sI2398
S'spouses'
p2542
sI2399
S'spokesman'
p2543
sI2400
S'3.35'
p2544
sI2401
S'new'
p2545
sI2402
S'ever'
p2546
sI2403
S'never'
p2547
sI2404
S'disposable'
p2548
sI2405
S'drew'
p2549
sI2406
S'Greene'
p2550
sI2407
S'met'
p2551
sI2408
S'109'
p2552
sI2409
S'active'
p2553
sI2410
S'100'
p2554
sI2411
S'101'
p2555
sI2412
S'ignoring'
p2556
sI2413
S'credit'
p2557
sI2414
S'campaign'
p2558
sI2415
S'St.'
p2559
sI2416
S'Relations'
p2560
sI2417
S'Also'
p2561
sI2418
S'pulp'
p2562
sI2419
S'arms'
p2563
sI2420
S'call'
p2564
sI2421
S'N.J.'
p2565
sI2422
S'survive'
p2566
sI2423
S'type'
p2567
sI2424
S'tell'
p2568
sI2425
S'composite'
p2569
sI2426
S'Tiananmen'
p2570
sI2427
S'warm'
p2571
sI2428
S'rights'
p2572
sI2429
S'Fraser'
p2573
sI2430
S'gasoline'
p2574
sI2431
S'movies'
p2575
sI2432
S'exceptions'
p2576
sI2433
S'give'
p2577
sI2434
S'laughs'
p2578
sI2435
S'involve'
p2579
sI2436
S'10,000'
p2580
sI2437
S'Pilgrim'
p2581
sI2438
S'Jack'
p2582
sI2439
S'answer'
p2583
sI2440
S'undesirable'
p2584
sI2441
S'minority'
p2585
sI2442
S'Castro'
p2586
sI2443
S'president'
p2587
sI2444
S'Ebensburg'
p2588
sI2445
S'purchase'
p2589
sI2446
S'All'
p2590
sI2447
S'attempt'
p2591
sI2448
S'third'
p2592
sI2449
S'Civil'
p2593
sI2450
S'U.S.A.'
p2594
sI2451
S'Telerate'
p2595
sI2452
S'maintain'
p2596
sI2453
S'uninsured'
p2597
sI2454
S'operate'
p2598
sI2455
S'operations'
p2599
sI2456
S'Agnelli'
p2600
sI2457
S'before'
p2601
sI2458
S'position'
p2602
sI2459
S'personal'
p2603
sI2460
S'PRI'
p2604
sI2461
g9
sI2462
S'sprays'
p2605
sI2463
S'clause'
p2606
sI2464
S'weeks'
p2607
sI2465
S'overcome'
p2608
sI2466
S'S&Ls'
p2609
sI2467
S'weakness'
p2610
sI2468
S'academics'
p2611
sI2469
S'therapy'
p2612
sI2470
S'pollution-control'
p2613
sI2471
S'Indeed'
p2614
sI2472
S'Milan'
p2615
sI2473
S'Planning'
p2616
sI2474
S'Tacker'
p2617
sI2475
S'discipline'
p2618
sI2476
S'Krebs'
p2619
sI2477
S'went'
p2620
sI2478
S'side'
p2621
sI2479
S'bond'
p2622
sI2480
S'principles'
p2623
sI2481
S'marital'
p2624
sI2482
S'trading'
p2625
sI2483
S'lawyers'
p2626
sI2484
S'dawn'
p2627
sI2485
S'contend'
p2628
sI2486
S'crucial'
p2629
sI2487
S'content'
p2630
sI2488
S'surprise'
p2631
sI2489
S'sluggish'
p2632
sI2490
S'turning'
p2633
sI2491
S'ascending'
p2634
sI2492
S'Minpeco'
p2635
sI2493
S'Lecheria'
p2636
sI2494
S'1.8415'
p2637
sI2495
S'Nixon'
p2638
sI2496
S'Berthold'
p2639
sI2497
S'arrived'
p2640
sI2498
S'features'
p2641
sI2499
S'economists'
p2642
sI2500
S'executions'
p2643
sI2501
S'featured'
p2644
sI2502
S'ditch'
p2645
sI2503
S'Mesa'
p2646
sI2504
S'somewhat'
p2647
sI2505
S'begins'
p2648
sI2506
S'distance'
p2649
sI2507
S'Cilcorp'
p2650
sI2508
S'matter'
p2651
sI2509
S'silly'
p2652
sI2510
S'N.M.'
p2653
sI2511
S'enables'
p2654
sI2512
S'bidder'
p2655
sI2513
S'plus'
p2656
sI2514
S'sees'
p2657
sI2515
S'steelmaker'
p2658
sI2516
S'mind'
p2659
sI2517
S'mining'
p2660
sI2518
S'seed'
p2661
sI2519
S'seen'
p2662
sI2520
S'seem'
p2663
sI2521
S'seek'
p2664
sI2522
S'jealously'
p2665
sI2523
S'regular'
p2666
sI2524
S'Alabama'
p2667
sI2525
S'Coca-Cola'
p2668
sI2526
S'Attorney'
p2669
sI2527
S'medical'
p2670
sI2528
S'competitors'
p2671
sI2529
S'points'
p2672
sI2530
S'principle'
p2673
sI2531
S'consumer'
p2674
sI2532
S'retire'
p2675
sI2533
S'ending'
p2676
sI2534
S'poison'
p2677
sI2535
S'judges'
p2678
sI2536
S'surged'
p2679
sI2537
S'debts'
p2680
sI2538
S'Free'
p2681
sI2539
S'Others'
p2682
sI2540
S'jailed'
p2683
sI2541
S'wearing'
p2684
sI2542
S'above'
p2685
sI2543
S'stop'
p2686
sI2544
S'equity-purchase'
p2687
sI2545
S'Organization'
p2688
sI2546
S'earn'
p2689
sI2547
S'bar'
p2690
sI2548
S'fields'
p2691
sI2549
S'Washington'
p2692
sI2550
S'bad'
p2693
sI2551
S'ban'
p2694
sI2552
S'Ozal'
p2695
sI2553
S'half-an-hour'
p2696
sI2554
S'subject'
p2697
sI2555
S'said'
p2698
sI2556
S'tolerance'
p2699
sI2557
S'suggested'
p2700
sI2558
S'resistant'
p2701
sI2559
S'uncertainty'
p2702
sI2560
S'pollinated'
p2703
sI2561
S'against'
p2704
sI2562
S'appeared'
p2705
sI2563
S'COMMERCIAL'
p2706
sI2564
S'initiative'
p2707
sI2565
S'C.'
p2708
sI2566
S'puts'
p2709
sI2567
S'basis'
p2710
sI2568
S'three'
p2711
sI2569
S'tiny'
p2712
sI2570
S'Early'
p2713
sI2571
S'commission'
p2714
sI2572
S'interest'
p2715
sI2573
S'basic'
p2716
sI2574
S'entered'
p2717
sI2575
S'lovely'
p2718
sI2576
S'threw'
p2719
sI2577
S'deeper'
p2720
sI2578
S'CD'
p2721
sI2579
S'personally'
p2722
sI2580
S'Merrill'
p2723
sI2581
S'unpopular'
p2724
sI2582
S'Co'
p2725
sI2583
S'economies'
p2726
sI2584
S'ventures'
p2727
sI2585
S'near'
p2728
sI2586
S'gene-splicing'
p2729
sI2587
S'balance'
p2730
sI2588
S'Tuesday'
p2731
sI2589
S'seven'
p2732
sI2590
S'Arizona'
p2733
sI2591
S'is'
p2734
sI2592
S'it'
p2735
sI2593
S'in'
p2736
sI2594
S'Last'
p2737
sI2595
S'if'
p2738
sI2596
S'grown'
p2739
sI2597
S'bottles'
p2740
sI2598
S'make'
p2741
sI2599
S'President'
p2742
sI2600
S'sidelines'
p2743
sI2601
S'meets'
p2744
sI2602
S'human-rights'
p2745
sI2603
S'delight'
p2746
sI2604
S'Morris'
p2747
sI2605
S'opportunity'
p2748
sI2606
S'butter'
p2749
sI2607
S'practiced'
p2750
sI2608
S'programs'
p2751
sI2609
S'settled'
p2752
sI2610
S'practices'
p2753
sI2611
S'claims'
p2754
sI2612
S'800'
p2755
sI2613
S'investments'
p2756
sI2614
S'left'
p2757
sI2615
S'just'
p2758
sI2616
S'yen'
p2759
sI2617
S'assigned'
p2760
sI2618
S'yet'
p2761
sI2619
S'buyers'
p2762
sI2620
S'NAM'
p2763
sI2621
S'News'
p2764
sI2622
S'save'
p2765
sI2623
S'Building'
p2766
sI2624
S'supervisors'
p2767
sI2625
S'buy-out'
p2768
sI2626
S'wanting'
p2769
sI2627
S'unnecessary'
p2770
sI2628
S'Stoll'
p2771
sI2629
S'Agnellis'
p2772
sI2630
S'deal'
p2773
sI2631
S'somehow'
p2774
sI2632
S'elderly'
p2775
sI2633
S'short-term'
p2776
sI2634
S'W.Va'
p2777
sI2635
S'separately'
p2778
sI2636
S'Nobody'
p2779
sI2637
S'motor-control'
p2780
sI2638
S'bold'
p2781
sI2639
S'confrontation'
p2782
sI2640
S'Separately'
p2783
sI2641
S'magazine'
p2784
sI2642
S'Including'
p2785
sI2643
S'afternoon'
p2786
sI2644
S'automatically'
p2787
sI2645
S'Tomash'
p2788
sI2646
S'managers'
p2789
sI2647
S'formerly'
p2790
sI2648
S'amounted'
p2791
sI2649
S'down'
p2792
sI2650
S'Cranston'
p2793
sI2651
S'Brantford'
p2794
sI2652
S'tennis'
p2795
sI2653
S'Backer'
p2796
sI2654
S'editor'
p2797
sI2655
S'fraction'
p2798
sI2656
S'62.875'
p2799
sI2657
S'DNA'
p2800
sI2658
S'offering'
p2801
sI2659
S'Assume'
p2802
sI2660
S'January'
p2803
sI2661
S'landing'
p2804
sI2662
S'failure'
p2805
sI2663
S'syndicate'
p2806
sI2664
S'analyst'
p2807
sI2665
S'3.7'
p2808
sI2666
S'caution'
p2809
sI2667
S'attached'
p2810
sI2668
S'S.p'
p2811
sI2669
S'stages'
p2812
sI2670
S'Nuclear'
p2813
sI2671
S'3.1'
p2814
sI2672
S'one-third'
p2815
sI2673
S'covers'
p2816
sI2674
S'sale'
p2817
sI2675
S'hot-air'
p2818
sI2676
S'Ruffo'
p2819
sI2677
S'generally'
p2820
sI2678
S'why'
p2821
sI2679
S'felt'
p2822
sI2680
S'fell'
p2823
sI2681
S'authorities'
p2824
sI2682
S'Mass.'
p2825
sI2683
S'died'
p2826
sI2684
S'billion'
p2827
sI2685
S'daily'
p2828
sI2686
S'Second'
p2829
sI2687
S'profits'
p2830
sI2688
S'overdue'
p2831
sI2689
S'managed'
p2832
sI2690
S'manager'
p2833
sI2691
S'mile'
p2834
sI2692
S'milk'
p2835
sI2693
S'anticipation'
p2836
sI2694
S'757-200s'
p2837
sI2695
S'technique'
p2838
sI2696
S'Kimberly-Clark'
p2839
sI2697
S'Ridley'
p2840
sI2698
S'finally'
p2841
sI2699
S'marks'
p2842
sI2700
S'Atlanta'
p2843
sI2701
S'ballooning'
p2844
sI2702
S'string'
p2845
sI2703
S'advised'
p2846
sI2704
S'Financial'
p2847
sI2705
S'Where'
p2848
sI2706
S'governments'
p2849
sI2707
S'1997'
p2850
sI2708
S'did'
p2851
sI2709
S'proposals'
p2852
sI2710
S'magnet'
p2853
sI2711
S'item'
p2854
sI2712
S'attracting'
p2855
sI2713
S'unexpected'
p2856
sI2714
S'dealing'
p2857
sI2715
S'run'
p2858
sI2716
S'Weyerhaeuser'
p2859
sI2717
S'targets'
p2860
sI2718
S'majors'
p2861
sI2719
S'adds'
p2862
sI2720
S'international'
p2863
sI2721
S'Bill'
p2864
sI2722
S'transportation'
p2865
sI2723
S'Bids'
p2866
sI2724
S'Times'
p2867
sI2725
S'earthquake'
p2868
sI2726
S'superconductor'
p2869
sI2727
S'cuckoo'
p2870
sI2728
S'suggestion'
p2871
sI2729
S'Technology'
p2872
sI2730
S'adjustable'
p2873
sI2731
S'useful'
p2874
sI2732
S'merely'
p2875
sI2733
S'When'
p2876
sI2734
S'Australia'
p2877
sI2735
S'troops'
p2878
sI2736
S'visit'
p2879
sI2737
S'insider'
p2880
sI2738
S'francs'
p2881
sI2739
S'rigid'
p2882
sI2740
S'effort'
p2883
sI2741
S'fly'
p2884
sI2742
S'Pacific'
p2885
sI2743
S'sour'
p2886
sI2744
S'growing'
p2887
sI2745
S'making'
p2888
sI2746
S'Digital'
p2889
sI2747
S'Coke'
p2890
sI2748
S'chemical'
p2891
sI2749
S'sworn'
p2892
sI2750
S'145'
p2893
sI2751
S'may'
p2894
sI2752
S'Trifari'
p2895
sI2753
S'membership'
p2896
sI2754
S'designed'
p2897
sI2755
S'Yale'
p2898
sI2756
S'grow'
p2899
sI2757
S'man'
p2900
sI2758
S'Series'
p2901
sI2759
S'borrowing'
p2902
sI2760
S'tale'
p2903
sI2761
S'basket'
p2904
sI2762
S'talk'
p2905
sI2763
S'disclosure'
p2906
sI2764
S'argues'
p2907
sI2765
S'stability'
p2908
sI2766
S'cuts'
p2909
sI2767
S'argued'
p2910
sI2768
S'police'
p2911
sI2769
S'monitor'
p2912
sI2770
S'interesting'
p2913
sI2771
S'listing'
p2914
sI2772
S'policy'
p2915
sI2773
S'mail'
p2916
sI2774
S'main'
p2917
sI2775
S'finance'
p2918
sI2776
S'views'
p2919
sI2777
S'impulses'
p2920
sI2778
S'undisclosed'
p2921
sI2779
S'attorneys'
p2922
sI2780
S'resignation'
p2923
sI2781
S'Wakeman'
p2924
sI2782
S'Holdings'
p2925
sI2783
S'living'
p2926
sI2784
S'followed'
p2927
sI2785
S'RTC'
p2928
sI2786
S'EG&G'
p2929
sI2787
S'correct'
p2930
sI2788
S'indicating'
p2931
sI2789
S'Commerce'
p2932
sI2790
S'earlier'
p2933
sI2791
S'Rights'
p2934
sI2792
S'Marks'
p2935
sI2793
S'advance'
p2936
sI2794
S'Already'
p2937
sI2795
S'thing'
p2938
sI2796
S'economic-forecasting'
p2939
sI2797
S'think'
p2940
sI2798
S'frequent'
p2941
sI2799
S'first'
p2942
sI2800
S'Graeme'
p2943
sI2801
S'fast'
p2944
sI2802
S'suspended'
p2945
sI2803
S'carry'
p2946
sI2804
S'corporations'
p2947
sI2805
S'sounds'
p2948
sI2806
S'little'
p2949
sI2807
S'J.P.'
p2950
sI2808
S'anyone'
p2951
sI2809
S'eyes'
p2952
sI2810
S'allegedly'
p2953
sI2811
S'11'
p2954
sI2812
S'10'
p2955
sI2813
S'13'
p2956
sI2814
S'12'
p2957
sI2815
S'15'
p2958
sI2816
S'14'
p2959
sI2817
S'17'
p2960
sI2818
S'16'
p2961
sI2819
S'19'
p2962
sI2820
S'18'
p2963
sI2821
S'venture'
p2964
sI2822
S'were'
p2965
sI2823
S'Kuehn'
p2966
sI2824
S'Court'
p2967
sI2825
S'conspiracy'
p2968
sI2826
S'pastry'
p2969
sI2827
S'neurosurgeon'
p2970
sI2828
S'surgery'
p2971
sI2829
S'Do'
p2972
sI2830
S'Murphy'
p2973
sI2831
S'potential'
p2974
sI2832
S'performance'
p2975
sI2833
S'Du'
p2976
sI2834
S'channel'
p2977
sI2835
S'200'
p2978
sI2836
S'normal'
p2979
sI2837
S'track'
p2980
sI2838
S'Rouge'
p2981
sI2839
S'paid'
p2982
sI2840
S'D.'
p2983
sI2841
S'Trust'
p2984
sI2842
S'especially'
p2985
sI2843
S'surprising'
p2986
sI2844
S'That'
p2987
sI2845
S'Accounting'
p2988
sI2846
S'shop'
p2989
sI2847
S'rating'
p2990
sI2848
S'show'
p2991
sI2849
S'contemporary'
p2992
sI2850
S'Stephen'
p2993
sI2851
S'label'
p2994
sI2852
S'We'
p2995
sI2853
S'behind'
p2996
sI2854
S'black'
p2997
sI2855
S'Services'
p2998
sI2856
S'ranking'
p2999
sI2857
S'get'
p3000
sI2858
S'contracts'
p3001
sI2859
S'RISC'
p3002
sI2860
S'employers'
p3003
sI2861
S'Baja'
p3004
sI2862
S'hailed'
p3005
sI2863
S'nearly'
p3006
sI2864
S'BNL'
p3007
sI2865
S'secondary'
p3008
sI2866
S'Filipinos'
p3009
sI2867
S'W.'
p3010
sI2868
S'yield'
p3011
sI2869
S'morning'
p3012
sI2870
S'miles'
p3013
sI2871
S'declared'
p3014
sI2872
S'12.4'
p3015
sI2873
S'seat'
p3016
sI2874
S'Neave'
p3017
sI2875
S'Manufacturers'
p3018
sI2876
S'Thatcher'
p3019
sI2877
S'wonder'
p3020
sI2878
S'FOR'
p3021
sI2879
S'forecast'
p3022
sI2880
S'enough'
p3023
sI2881
S'across'
p3024
sI2882
S'infrastructure'
p3025
sI2883
S'parent'
p3026
sI2884
S'Each'
p3027
sI2885
S'dates'
p3028
sI2886
S'Florence'
p3029
sI2887
S'trader'
p3030
sI2888
S'trades'
p3031
sI2889
S'according'
p3032
sI2890
S'Laboratory'
p3033
sI2891
S'holders'
p3034
sI2892
S'traded'
p3035
sI2893
S'among'
p3036
sI2894
S'maintained'
p3037
sI2895
S'grants'
p3038
sI2896
S'considering'
p3039
sI2897
S'unusual'
p3040
sI2898
S'Calif.'
p3041
sI2899
S'shopping'
p3042
sI2900
S'offered'
p3043
sI2901
S'dramatic'
p3044
sI2902
S'wake'
p3045
sI2903
S'those'
p3046
sI2904
S'sound'
p3047
sI2905
S"n't"
p3048
sI2906
S'mechanical'
p3049
sI2907
S'margin'
p3050
sI2908
S'conferences'
p3051
sI2909
S'eventually'
p3052
sI2910
S'coffee'
p3053
sI2911
S'bags'
p3054
sI2912
S'Plant'
p3055
sI2913
S'pay'
p3056
sI2914
S'same'
p3057
sI2915
S'arguments'
p3058
sI2916
S'oil'
p3059
sI2917
S'Salvador'
p3060
sI2918
S'companion'
p3061
sI2919
S'running'
p3062
sI2920
S'creditor'
p3063
sI2921
S'climbing'
p3064
sI2922
S'totally'
p3065
sI2923
S'drain'
p3066
sI2924
S'largely'
p3067
sI2925
S'Renk'
p3068
sI2926
S'Motors'
p3069
sI2927
S'roughly'
p3070
sI2928
S'mortgages'
p3071
sI2929
S'TV'
p3072
sI2930
S'asset-backed'
p3073
sI2931
S'Ways'
p3074
sI2932
S'money'
p3075
sI2933
S'adjustments'
p3076
sI2934
S'Weekes'
p3077
sI2935
S'4'
p3078
sI2936
S'Although'
p3079
sI2937
S'pill'
p3080
sI2938
S'credentials'
p3081
sI2939
S'railroad'
p3082
sI2940
S'disappointed'
p3083
sI2941
S'serves'
p3084
sI2942
S"'ve"
p3085
sI2943
S'chamber'
p3086
sI2944
S'audience'
p3087
sI2945
S'London'
p3088
sI2946
S'either'
p3089
sI2947
S'retailers'
p3090
sI2948
S'served'
p3091
sI2949
S'Jewelry'
p3092
sI2950
S'Entertainment'
p3093
sI2951
S'Dr.'
p3094
sI2952
S'images'
p3095
sI2953
S'New'
p3096
sI2954
S'Net'
p3097
sI2955
S'matching'
p3098
sI2956
S'gross'
p3099
sI2957
S'calculating'
p3100
sI2958
S'Chapter'
p3101
sI2959
S'specializing'
p3102
sI2960
S'underwriters'
p3103
sI2961
S'manufactured'
p3104
sI2962
S'broker'
p3105
sI2963
S'notably'
p3106
sI2964
S'Vietnam'
p3107
sI2965
S'conducting'
p3108
sI2966
S'Revenue'
p3109
sI2967
S'Trade'
p3110
sI2968
S'Paper'
p3111
sI2969
S'airline'
p3112
sI2970
S'mixed'
p3113
sI2971
S'road'
p3114
sI2972
S'coupon'
p3115
sI2973
S'references'
p3116
sI2974
S'Though'
p3117
sI2975
S'styling'
p3118
sI2976
S'combined'
p3119
sI2977
S'bipartisan'
p3120
sI2978
S'Treaty'
p3121
sI2979
S'Guber'
p3122
sI2980
S'arranged'
p3123
sI2981
S'co-chief'
p3124
sI2982
S'Eddie'
p3125
sI2983
S'Alamos'
p3126
sI2984
S'Stanza'
p3127
sI2985
S'deep'
p3128
sI2986
S'general'
p3129
sI2987
S'examine'
p3130
sI2988
S'file'
p3131
sI2989
S'fill'
p3132
sI2990
S'again'
p3133
sI2991
S'personnel'
p3134
sI2992
S'hybrid'
p3135
sI2993
S'Hyundai'
p3136
sI2994
S'field'
p3137
sI2995
S'Drilling'
p3138
sI2996
S'students'
p3139
sI2997
S'important'
p3140
sI2998
S'brands'
p3141
sI2999
S'prudent'
p3142
sI3000
S'Major'
p3143
sI3001
S'US$'
p3144
sI3002
S'assets'
p3145
sI3003
S'Year'
p3146
sI3004
S'founder'
p3147
sI3005
S'dollar'
p3148
sI3006
S'Moon'
p3149
sI3007
S'founded'
p3150
sI3008
S'cooperative'
p3151
sI3009
S'talks'
p3152
sI3010
S'reluctant'
p3153
sI3011
S'William'
p3154
sI3012
S'PRIME'
p3155
sI3013
S'premium'
p3156
sI3014
S'fall'
p3157
sI3015
S'grand-jury'
p3158
sI3016
S'economically'
p3159
sI3017
S'Only'
p3160
sI3018
S'lawyer'
p3161
sI3019
S'10.48'
p3162
sI3020
S'stood'
p3163
sI3021
S'public'
p3164
sI3022
S'movement'
p3165
sI3023
S'ranged'
p3166
sI3024
S'component'
p3167
sI3025
S'Arthur'
p3168
sI3026
S'operating'
p3169
sI3027
S'900'
p3170
sI3028
S'prosecutors'
p3171
sI3029
S'published'
p3172
sI3030
S'insects'
p3173
sI3031
S'establish'
p3174
sI3032
S'Europe'
p3175
sI3033
S'shareholders'
p3176
sI3034
S'eye'
p3177
sI3035
S'two'
p3178
sI3036
S'Corp'
p3179
sI3037
S'libel'
p3180
sI3038
S'LTV'
p3181
sI3039
S'Kennedy'
p3182
sI3040
S'FEDERAL'
p3183
sI3041
S'controlling'
p3184
sI3042
S'particular'
p3185
sI3043
S'Peters'
p3186
sI3044
S'town'
p3187
sI3045
S'none'
p3188
sI3046
S'hour'
p3189
sI3047
S'remain'
p3190
sI3048
S'del'
p3191
sI3049
S'abandon'
p3192
sI3050
S'strategies'
p3193
sI3051
S'purchases'
p3194
sI3052
S'Retirement'
p3195
sI3053
S'share'
p3196
sI3054
S'Kume'
p3197
sI3055
S'minimum'
p3198
sI3056
S'purchased'
p3199
sI3057
S'sharp'
p3200
sI3058
S'Calif'
p3201
sI3059
S'!'
p3202
sI3060
S'maturing'
p3203
sI3061
S'needs'
p3204
sI3062
S'Paramount'
p3205
sI3063
S'Raymond'
p3206
sI3064
S'subminimum'
p3207
sI3065
S'smokers'
p3208
sI3066
S'advice'
p3209
sI3067
S'different'
p3210
sI3068
S'Nebraska'
p3211
sI3069
S'coming'
p3212
sI3070
S'Dow'
p3213
sI3071
S'playing'
p3214
sI3072
S'What'
p3215
sI3073
S'through'
p3216
sI3074
S'Texas'
p3217
sI3075
S'24'
p3218
sI3076
S'25'
p3219
sI3077
S'26'
p3220
sI3078
S'27'
p3221
sI3079
S'20'
p3222
sI3080
S'21'
p3223
sI3081
S'22'
p3224
sI3082
S'23'
p3225
sI3083
S'28'
p3226
sI3084
S'29'
p3227
sI3085
S'Marietta'
p3228
sI3086
S'good'
p3229
sI3087
S'Bar'
p3230
sI3088
S'seeking'
p3231
sI3089
S'Bay'
p3232
sI3090
S'formulating'
p3233
sI3091
S'complain'
p3234
sI3092
S'association'
p3235
sI3093
S'easily'
p3236
sI3094
S'habits'
p3237
sI3095
S'McDonnell'
p3238
sI3096
S'repeating'
p3239
sI3097
S'harm'
p3240
sI3098
S'everyone'
p3241
sI3099
S'house'
p3242
sI3100
S'energy'
p3243
sI3101
S'hard'
p3244
sI3102
S'idea'
p3245
sI3103
S'seniority'
p3246
sI3104
S'insurance'
p3247
sI3105
S'initiatives'
p3248
sI3106
S'E.'
p3249
sI3107
S'projected'
p3250
sI3108
S'1.75'
p3251
sI3109
S'longtime'
p3252
sI3110
S'1.78'
p3253
sI3111
S'disobedience'
p3254
sI3112
S'extraordinary'
p3255
sI3113
S'members'
p3256
sI3114
S'backed'
p3257
sI3115
S'beginning'
p3258
sI3116
S'El'
p3259
sI3117
S'computers'
p3260
sI3118
S'PAPER'
p3261
sI3119
S'Fla.'
p3262
sI3120
S'accusations'
p3263
sI3121
S'Haag'
p3264
sI3122
S'mistakenly'
p3265
sI3123
S'done'
p3266
sI3124
S'wages'
p3267
sI3125
S'heights'
p3268
sI3126
S'Medco'
p3269
sI3127
S'WPP'
p3270
sI3128
S'least'
p3271
sI3129
S'180'
p3272
sI3130
S'statement'
p3273
sI3131
S'Belgium'
p3274
sI3132
S'rates'
p3275
sI3133
S'188'
p3276
sI3134
S'muscles'
p3277
sI3135
S'sizable'
p3278
sI3136
S'part'
p3279
sI3137
S'favorable'
p3280
sI3138
S'doctors'
p3281
sI3139
S'believe'
p3282
sI3140
S'869'
p3283
sI3141
S'youth'
p3284
sI3142
S'supposed'
p3285
sI3143
S'treated'
p3286
sI3144
S'businesslike'
p3287
sI3145
S'orders'
p3288
sI3146
S'collateralized'
p3289
sI3147
S'built'
p3290
sI3148
S'Power'
p3291
sI3149
S'Virginia'
p3292
sI3150
S'majority'
p3293
sI3151
S'Workers'
p3294
sI3152
S'appellate'
p3295
sI3153
S'build'
p3296
sI3154
S'Kim'
p3297
sI3155
S'Sider'
p3298
sI3156
S'eggs'
p3299
sI3157
S'Hawaii'
p3300
sI3158
S'most'
p3301
sI3159
S'Savings'
p3302
sI3160
S'significant'
p3303
sI3161
S'services'
p3304
sI3162
S'extremely'
p3305
sI3163
S'kiddies'
p3306
sI3164
S'goodwill'
p3307
sI3165
S'charitable'
p3308
sI3166
S'Robinson'
p3309
sI3167
S'joining'
p3310
sI3168
S'sector'
p3311
sI3169
S'particularly'
p3312
sI3170
S'rebels'
p3313
sI3171
S'obligations'
p3314
sI3172
S'commissions'
p3315
sI3173
S'businesses'
p3316
sI3174
S'Hill'
p3317
sI3175
S'find'
p3318
sI3176
S'Poor'
p3319
sI3177
S'giant'
p3320
sI3178
S'merger'
p3321
sI3179
S'distributed'
p3322
sI3180
S'generators'
p3323
sI3181
S'override'
p3324
sI3182
S'8'
p3325
sI3183
S'Fiat'
p3326
sI3184
S'fueling'
p3327
sI3185
S'permission'
p3328
sI3186
S'Thanksgiving'
p3329
sI3187
S'Reich'
p3330
sI3188
S'theft'
p3331
sI3189
S'Conservative'
p3332
sI3190
S'merchandise'
p3333
sI3191
S'target'
p3334
sI3192
S'resolve'
p3335
sI3193
S'Gant'
p3336
sI3194
S'recycled'
p3337
sI3195
S'remove'
p3338
sI3196
S'six-month'
p3339
sI3197
S'common'
p3340
sI3198
S'restaurants'
p3341
sI3199
S'individual'
p3342
sI3200
S'tender'
p3343
sI3201
S'feared'
p3344
sI3202
S'burner'
p3345
sI3203
S'fans'
p3346
sI3204
S'dividends'
p3347
sI3205
S'aircraft'
p3348
sI3206
S'scuttle'
p3349
sI3207
S'UniFirst'
p3350
sI3208
S'defunct'
p3351
sI3209
S'restaurant'
p3352
sI3210
S'annual'
p3353
sI3211
S'Bloedel'
p3354
sI3212
S'foreign'
p3355
sI3213
S'Yet'
p3356
sI3214
S'point'
p3357
sI3215
S'simple'
p3358
sI3216
S'Dallas'
p3359
sI3217
S'simply'
p3360
sI3218
S'expensive'
p3361
sI3219
S'headaches'
p3362
sI3220
S'Khmer'
p3363
sI3221
S'raise'
p3364
sI3222
S'create'
p3365
sI3223
S'rivals'
p3366
sI3224
S'dropping'
p3367
sI3225
S'Bancorp'
p3368
sI3226
S'gas'
p3369
sI3227
S'priced'
p3370
sI3228
S'repertoire'
p3371
sI3229
S'understand'
p3372
sI3230
S'prices'
p3373
sI3231
S'resisted'
p3374
sI3232
S'replaces'
p3375
sI3233
S'solid'
p3376
sI3234
S'bill'
p3377
sI3235
S'elections'
p3378
sI3236
S'denominations'
p3379
sI3237
S'fun'
p3380
sI3238
S'Khan'
p3381
sI3239
S'century'
p3382
sI3240
S'cents'
p3383
sI3241
S'itself'
p3384
sI3242
S'suggests'
p3385
sI3243
S'development'
p3386
sI3244
S'Asia-Pacific'
p3387
sI3245
S'yesterday'
p3388
sI3246
S'moment'
p3389
sI3247
S'purpose'
p3390
sI3248
S'safe'
p3391
sI3249
S'spent'
p3392
sI3250
S'Economic'
p3393
sI3251
S'spend'
p3394
sI3252
S'preference'
p3395
sI3253
S'one-year'
p3396
sI3254
S'junk-bond'
p3397
sI3255
S'distracting'
p3398
sI3256
S'alternative'
p3399
sI3257
S'timber'
p3400
sI3258
S'wage'
p3401
sI3259
S'cut'
p3402
sI3260
S'cup'
p3403
sI3261
S'deputy'
p3404
sI3262
S'Christopher'
p3405
sI3263
S'administrative'
p3406
sI3264
S'big'
p3407
sI3265
S'bid'
p3408
sI3266
S'Bickwit'
p3409
sI3267
S'Commons'
p3410
sI3268
S'matters'
p3411
sI3269
S'foreigners'
p3412
sI3270
S'Campaneris'
p3413
sI3271
S'bit'
p3414
sI3272
S'pollinate'
p3415
sI3273
S'follows'
p3416
sI3274
S'Cohen'
p3417
sI3275
S'indication'
p3418
sI3276
S'maquiladoras'
p3419
sI3277
S'Management'
p3420
sI3278
S'often'
p3421
sI3279
S'Gulf'
p3422
sI3280
S'grass-roots'
p3423
sI3281
S'pricing'
p3424
sI3282
S'scale'
p3425
sI3283
S'Seoul'
p3426
sI3284
S'decision'
p3427
sI3285
S'per'
p3428
sI3286
S'patient'
p3429
sI3287
S'300'
p3430
sI3288
S'continuing'
p3431
sI3289
S'David'
p3432
sI3290
S'restrictive'
p3433
sI3291
S'Indianapolis'
p3434
sI3292
S'Moreover'
p3435
sI3293
S'goods'
p3436
sI3294
S'ounce'
p3437
sI3295
S'pollution'
p3438
sI3296
S'plenty'
p3439
sI3297
S'abusive'
p3440
sI3298
S'retailer'
p3441
sI3299
S'bankruptcy'
p3442
sI3300
S'1.50'
p3443
sI3301
S'Unification'
p3444
sI3302
S'Mips'
p3445
sI3303
S'Steel'
p3446
sI3304
S'adjusting'
p3447
sI3305
S'hoped'
p3448
sI3306
S'two-part'
p3449
sI3307
S'hopes'
p3450
sI3308
S'subsidiary'
p3451
sI3309
S'Beijing'
p3452
sI3310
S'rejection'
p3453
sI3311
S'Alvin'
p3454
sI3312
S"'re"
p3455
sI3313
S'exploration'
p3456
sI3314
S'planes'
p3457
sI3315
S'jumbo'
p3458
sI3316
S'constant'
p3459
sI3317
S'Perhaps'
p3460
sI3318
S'stripped'
p3461
sI3319
S'specified'
p3462
sI3320
S'treaty'
p3463
sI3321
S'RC6280'
p3464
sI3322
S'%'
p3465
sI3323
S'May'
p3466
sI3324
S'Mac'
p3467
sI3325
S'Mae'
p3468
sI3326
S'Man'
p3469
sI3327
S'benchmark'
p3470
sI3328
S'prepared'
p3471
sI3329
S'1/8'
p3472
sI3330
S'rallied'
p3473
sI3331
S'Zapfel'
p3474
sI3332
S'vehicles'
p3475
sI3333
S'bankers'
p3476
sI3334
S'appalling'
p3477
sI3335
S'2001'
p3478
sI3336
S'Scott'
p3479
sI3337
S'Asian'
p3480
sI3338
S'tube'
p3481
sI3339
S'portraying'
p3482
sI3340
S'15,000'
p3483
sI3341
S'Someone'
p3484
sI3342
S'Business'
p3485
sI3343
S'Means'
p3486
sI3344
S'intensive'
p3487
sI3345
S'quarterly'
p3488
sI3346
S'labels'
p3489
sI3347
S'putting'
p3490
sI3348
S'Levy'
p3491
sI3349
S'entire'
p3492
sI3350
S'Defense'
p3493
sI3351
S'Turkey'
p3494
sI3352
S'Long'
p3495
sI3353
S'Anne'
p3496
sI3354
S'staffers'
p3497
sI3355
S'giving'
p3498
sI3356
S'access'
p3499
sI3357
S'clipboard'
p3500
sI3358
S'exercise'
p3501
sI3359
S'body'
p3502
sI3360
S'exchange'
p3503
sI3361
S'jointly'
p3504
sI3362
S'others'
p3505
sI3363
S'Boyer'
p3506
sI3364
S'extreme'
p3507
sI3365
S'39'
p3508
sI3366
S'Chinese'
p3509
sI3367
S'33'
p3510
sI3368
S'32'
p3511
sI3369
S'31'
p3512
sI3370
S'30'
p3513
sI3371
S'37'
p3514
sI3372
S'35'
p3515
sI3373
S'later'
p3516
sI3374
S'named'
p3517
sI3375
S'baskets'
p3518
sI3376
S'decrease'
p3519
sI3377
S'privately'
p3520
sI3378
S'Brazilian'
p3521
sI3379
S'scandal'
p3522
sI3380
S'Fe'
p3523
sI3381
S'year-ago'
p3524
sI3382
S'themselves'
p3525
sI3383
S'trait'
p3526
sI3384
S'S&P'
p3527
sI3385
S'S&L'
p3528
sI3386
S'account'
p3529
sI3387
S'stations'
p3530
sI3388
S'obvious'
p3531
sI3389
S'industrial'
p3532
sI3390
S'closing'
p3533
sI3391
S'F.'
p3534
sI3392
S'proportions'
p3535
sI3393
S'effectively'
p3536
sI3394
S'reserves'
p3537
sI3395
S'employs'
p3538
sI3396
S'maturities'
p3539
sI3397
S'holds'
p3540
sI3398
S'regions'
p3541
sI3399
S'responsibilities'
p3542
sI3400
S'1.8340'
p3543
sI3401
S'stock'
p3544
sI3402
S'Nissan'
p3545
sI3403
S'bind'
p3546
sI3404
S'lines'
p3547
sI3405
S'chief'
p3548
sI3406
S'Tennessee'
p3549
sI3407
S'institutional'
p3550
sI3408
S'agricultural'
p3551
sI3409
S'industries'
p3552
sI3410
S'negotiated'
p3553
sI3411
S'labor'
p3554
sI3412
S'willing'
p3555
sI3413
S'criminal'
p3556
sI3414
S'greater'
p3557
sI3415
S'cutting'
p3558
sI3416
S'courtroom'
p3559
sI3417
S'insisting'
p3560
sI3418
S'day'
p3561
sI3419
S'capital-gains'
p3562
sI3420
S'warned'
p3563
sI3421
S'identified'
p3564
sI3422
S'Gary'
p3565
sI3423
S'Fed'
p3566
sI3424
S'Balloon'
p3567
sI3425
S'salesman'
p3568
sI3426
S'defend'
p3569
sI3427
S'China'
p3570
sI3428
S'electronics'
p3571
sI3429
S'red'
p3572
sI3430
S'Kakita'
p3573
sI3431
S'Judicial'
p3574
sI3432
S'Senator'
p3575
sI3433
S'Directorate'
p3576
sI3434
S'allies'
p3577
sI3435
S'Nikkei'
p3578
sI3436
S'recipes'
p3579
sI3437
S'retain'
p3580
sI3438
S'Clifford'
p3581
sI3439
S'2,000'
p3582
sI3440
S'Administration'
p3583
sI3441
S'reaches'
p3584
sI3442
S'strategic'
p3585
sI3443
S'lagging'
p3586
sI3444
S'Sventek'
p3587
sI3445
S'owning'
p3588
sI3446
S'Coast'
p3589
sI3447
S'Association'
p3590
sI3448
S'Lincoln'
p3591
sI3449
S'Stevenson'
p3592
sI3450
S'nobody'
p3593
sI3451
S'environmental'
p3594
sI3452
S'completes'
p3595
sI3453
S'loved'
p3596
sI3454
S'compensation'
p3597
sI3455
S'visited'
p3598
sI3456
S'imaginative'
p3599
sI3457
S'comfortable'
p3600
sI3458
S'unlikely'
p3601
sI3459
S'have'
p3602
sI3460
S'apparently'
p3603
sI3461
S'Pao'
p3604
sI3462
S'Oil'
p3605
sI3463
S'Goldman'
p3606
sI3464
S'concerns'
p3607
sI3465
S'Santa'
p3608
sI3466
S'provoked'
p3609
sI3467
S'unless'
p3610
sI3468
S'eight'
p3611
sI3469
S'preliminary'
p3612
sI3470
S'sedan'
p3613
sI3471
S'payment'
p3614
sI3472
S'Pa.'
p3615
sI3473
S'enthusiastic'
p3616
sI3474
S'request'
p3617
sI3475
S'1,000'
p3618
sI3476
S'}'
p3619
sI3477
S'Saturday'
p3620
sI3478
S'supported'
p3621
sI3479
S'portfolio'
p3622
sI3480
S'staff'
p3623
sI3481
S'grabbed'
p3624
sI3482
S'controls'
p3625
sI3483
S'loafers'
p3626
sI3484
S'York'
p3627
sI3485
S'regularly'
p3628
sI3486
S'beat'
p3629
sI3487
S'Appleyard'
p3630
sI3488
S'timing'
p3631
sI3489
S'areas'
p3632
sI3490
S'approach'
p3633
sI3491
S'teams'
p3634
sI3492
S'135'
p3635
sI3493
S'national'
p3636
sI3494
S'Traders'
p3637
sI3495
S'RATE'
p3638
sI3496
S'enhanced'
p3639
sI3497
S'audits'
p3640
sI3498
S'attempting'
p3641
sI3499
S'brunt'
p3642
sI3500
S'forest-products'
p3643
sI3501
S'discounts'
p3644
sI3502
S'difficulties'
p3645
sI3503
S'routine'
p3646
sI3504
S'progress'
p3647
sI3505
S'July'
p3648
sI3506
S'various'
p3649
sI3507
S'33,000'
p3650
sI3508
S'taking'
p3651
sI3509
S'equal'
p3652
sI3510
S'attributed'
p3653
sI3511
S'liquidating'
p3654
sI3512
S'comment'
p3655
sI3513
S'124,875'
p3656
sI3514
S'Temple'
p3657
sI3515
S'Rewards'
p3658
sI3516
S'Muramatsu'
p3659
sI3517
S'indicators'
p3660
sI3518
S'proposal'
p3661
sI3519
S'Moonies'
p3662
sI3520
S'Center'
p3663
sI3521
S'essentially'
p3664
sI3522
S'Paragould'
p3665
sI3523
S'fellow'
p3666
sI3524
S'homes'
p3667
sI3525
S'appearance'
p3668
sI3526
S'value'
p3669
sI3527
S'General'
p3670
sI3528
S'almost'
p3671
sI3529
S'Imperial'
p3672
sI3530
S'helped'
p3673
sI3531
S'LONDON'
p3674
sI3532
S'claimed'
p3675
sI3533
S'partner'
p3676
sI3534
S'Beach'
p3677
sI3535
S')'
p3678
sI3536
S'Hunter'
p3679
sI3537
S'merging'
p3680
sI3538
S'USX'
p3681
sI3539
S'Posted'
p3682
sI3540
S'Marcus'
p3683
sI3541
S'practice'
p3684
sI3542
S'JCP'
p3685
sI3543
S'reporting'
p3686
sI3544
S'Airport'
p3687
sI3545
S'II'
p3688
sI3546
S'Order'
p3689
sI3547
S'center'
p3690
sI3548
S'Senate'
p3691
sI3549
S'thought'
p3692
sI3550
S'usual'
p3693
sI3551
S'stores'
p3694
sI3552
S'executive'
p3695
sI3553
S'domestic'
p3696
sI3554
S'tough'
p3697
sI3555
S'ads'
p3698
sI3556
S'Friday'
p3699
sI3557
S'bench'
p3700
sI3558
S'add'
p3701
sI3559
S'ought'
p3702
sI3560
S'resolved'
p3703
sI3561
S'tests'
p3704
sI3562
S'judiciary'
p3705
sI3563
S'like'
p3706
sI3564
S'success'
p3707
sI3565
S'admitted'
p3708
sI3566
S'works'
p3709
sI3567
S'soft'
p3710
sI3568
S'accessible'
p3711
sI3569
S'authority'
p3712
sI3570
S'hair'
p3713
sI3571
S'Zayadi'
p3714
sI3572
S'recommendation'
p3715
sI3573
S'Givens'
p3716
sI3574
S'assuming'
p3717
sI3575
S'Employees'
p3718
sI3576
S'host'
p3719
sI3577
S'expire'
p3720
sI3578
S'although'
p3721
sI3579
S'jobless'
p3722
sI3580
S'about'
p3723
sI3581
S'actual'
p3724
sI3582
S'boards'
p3725
sI3583
S'December'
p3726
sI3584
S'Japan'
p3727
sI3585
S'introduced'
p3728
sI3586
S'Mayor'
p3729
sI3587
S'ways'
p3730
sI3588
S'Two'
p3731
sI3589
S'billions'
p3732
sI3590
S'female'
p3733
sI3591
S'Scientists'
p3734
sI3592
S'1986'
p3735
sI3593
S'1985'
p3736
sI3594
S'1982'
p3737
sI3595
S'1983'
p3738
sI3596
S'1980'
p3739
sI3597
S'1981'
p3740
sI3598
S'1988'
p3741
sI3599
S'awarded'
p3742
sI3600
S'biggest'
p3743
sI3601
S'November'
p3744
sI3602
S'buy'
p3745
sI3603
S'brand'
p3746
sI3604
S'Paperboard'
p3747
sI3605
S'but'
p3748
sI3606
S'wealthier'
p3749
sI3607
S'money-fund'
p3750
sI3608
S'Wall'
p3751
sI3609
S'minutes'
p3752
sI3610
S'Insurance'
p3753
sI3611
S'49'
p3754
sI3612
S'46'
p3755
sI3613
S'corporation'
p3756
sI3614
S'44'
p3757
sI3615
S'45'
p3758
sI3616
S'42'
p3759
sI3617
S'detail'
p3760
sI3618
S'40'
p3761
sI3619
S'out'
p3762
sI3620
S'April'
p3763
sI3621
S'Act'
p3764
sI3622
S'Stewart'
p3765
sI3623
S'Ashurst'
p3766
sI3624
S'original'
p3767
sI3625
S'biotechnology'
p3768
sI3626
S'limited'
p3769
sI3627
S'Continental'
p3770
sI3628
S'facilities'
p3771
sI3629
S'Communist'
p3772
sI3630
S'9/16'
p3773
sI3631
S'public-relations'
p3774
sI3632
S'violate'
p3775
sI3633
S'Oka'
p3776
sI3634
S'under'
p3777
sI3635
S'pride'
p3778
sI3636
S'legislators'
p3779
sI3637
S'risk'
p3780
sI3638
S'Industry'
p3781
sI3639
S'rise'
p3782
sI3640
S'every'
p3783
sI3641
S'GM'
p3784
sI3642
S'school'
p3785
sI3643
S'Europeans'
p3786
sI3644
S'enjoy'
p3787
sI3645
S'leaders'
p3788
sI3646
S'guidelines'
p3789
sI3647
S'estimates'
p3790
sI3648
S'direct'
p3791
sI3649
S'street'
p3792
sI3650
S'Gideon'
p3793
sI3651
S'Saint-Saens'
p3794
sI3652
S'anti-apartheid'
p3795
sI3653
S'profitability'
p3796
sI3654
S'liberty'
p3797
sI3655
S'conduct'
p3798
sI3656
S'seeks'
p3799
sI3657
S'hundreds'
p3800
sI3658
S'studio'
p3801
sI3659
S'represented'
p3802
sI3660
S'voice'
p3803
sI3661
S'auction'
p3804
sI3662
S'changed'
p3805
sI3663
S'analysts'
p3806
sI3664
S'changes'
p3807
sI3665
S'issuers'
p3808
sI3666
S'Petty'
p3809
sI3667
S'Group'
p3810
sI3668
S'visible'
p3811
sI3669
S'swings'
p3812
sI3670
S'would'
p3813
sI3671
S'hospital'
p3814
sI3672
S'Express'
p3815
sI3673
S'June'
p3816
sI3674
S'asset'
p3817
sI3675
S'Ark.'
p3818
sI3676
S"M'Bow"
p3819
sI3677
S'phone'
p3820
sI3678
S'excellent'
p3821
sI3679
S'must'
p3822
sI3680
S'me'
p3823
sI3681
S'join'
p3824
sI3682
S'install'
p3825
sI3683
S'my'
p3826
sI3684
S'male-fertile'
p3827
sI3685
S'estate'
p3828
sI3686
S'times'
p3829
sI3687
S'attract'
p3830
sI3688
S'male-sterile'
p3831
sI3689
S'end'
p3832
sI3690
S'adjacent'
p3833
sI3691
S'gate'
p3834
sI3692
S'III'
p3835
sI3693
S'badly'
p3836
sI3694
S'mess'
p3837
sI3695
S'Yorker'
p3838
sI3696
S'7/8'
p3839
sI3697
S'amid'
p3840
sI3698
S'acknowledged'
p3841
sI3699
S'Japanese'
p3842
sI3700
S'Salinas'
p3843
sI3701
S'enter'
p3844
sI3702
S'over'
p3845
sI3703
S'expects'
p3846
sI3704
S'expectations'
p3847
sI3705
S'Here'
p3848
sI3706
S'10.2'
p3849
sI3707
S'16.3'
p3850
sI3708
S'400'
p3851
sI3709
S'`'
p3852
sI3710
S'tourism'
p3853
sI3711
S'30-year'
p3854
sI3712
S'Four'
p3855
sI3713
S'dollar-denominated'
p3856
sI3714
S'affiliate'
p3857
sI3715
S'each'
p3858
sI3716
S'Transport'
p3859
sI3717
S'lasting'
p3860
sI3718
S'signing'
p3861
sI3719
S'Distance'
p3862
sI3720
S'satellite'
p3863
sI3721
S'combining'
p3864
sI3722
S'driving'
p3865
sI3723
S'Chancellor'
p3866
sI3724
S'got'
p3867
sI3725
S'newly'
p3868
sI3726
S'free'
p3869
sI3727
S'streamline'
p3870
sI3728
S'time-limited'
p3871
sI3729
S'boosting'
p3872
sI3730
S'wanted'
p3873
sI3731
S'days'
p3874
sI3732
S'pence'
p3875
sI3733
S'already'
p3876
sI3734
S'researcher'
p3877
sI3735
S'primary'
p3878
sI3736
S'hearing'
p3879
sI3737
S'adopted'
p3880
sI3738
S'Congress'
p3881
sI3739
S'top'
p3882
sI3740
S'Devario'
p3883
sI3741
S'ton'
p3884
sI3742
S'too'
p3885
sI3743
S'percentage'
p3886
sI3744
S'penalties'
p3887
sI3745
S'urban'
p3888
sI3746
S'ceiling'
p3889
sI3747
S'tool'
p3890
sI3748
S'serve'
p3891
sI3749
S'took'
p3892
sI3750
S'negotiating'
p3893
sI3751
S'western'
p3894
sI3752
S'final'
p3895
sI3753
S'classes'
p3896
sI3754
S'fashion'
p3897
sI3755
S'ran'
p3898
sI3756
S'HealthVest'
p3899
sI3757
S'talking'
p3900
sI3758
S'further'
p3901
sI3759
S'relatively'
p3902
sI3760
S'1969'
p3903
sI3761
S'-'
p3904
sI3762
S'isolated'
p3905
sI3763
S'thorough'
p3906
sI3764
S'though'
p3907
sI3765
S'Ogden'
p3908
sI3766
S'8.04'
p3909
sI3767
S'8.05'
p3910
sI3768
S'flow'
p3911
sI3769
S'Voices'
p3912
sI3770
S'reputation'
p3913
sI3771
S'after-tax'
p3914
sI3772
S'Utility'
p3915
sI3773
S'Its'
p3916
sI3774
S'Milk'
p3917
sI3775
S'seasonal'
p3918
sI3776
S'reductions'
p3919
sI3777
S'CBS'
p3920
sI3778
S'Big'
p3921
sI3779
S'Records'
p3922
sI3780
S'announce'
p3923
sI3781
S'DeSoto'
p3924
sI3782
S'watch'
p3925
sI3783
S'criticized'
p3926
sI3784
S'despite'
p3927
sI3785
S'report'
p3928
sI3786
S'Moore'
p3929
sI3787
S'countries'
p3930
sI3788
S'Mediterranean'
p3931
sI3789
S'twice'
p3932
sI3790
S'mergers'
p3933
sI3791
S'corrupt'
p3934
sI3792
S'capacity'
p3935
sI3793
S'however'
p3936
sI3794
S'Chevy'
p3937
sI3795
S'Unificationist'
p3938
sI3796
S'news'
p3939
sI3797
S'improve'
p3940
sI3798
S'faced'
p3941
sI3799
S'Among'
p3942
sI3800
S'protect'
p3943
sI3801
S'credit-card'
p3944
sI3802
S'players'
p3945
sI3803
S'Computer'
p3946
sI3804
S'creditors'
p3947
sI3805
S'faces'
p3948
sI3806
S'Diego'
p3949
sI3807
S'Pharmaceuticals'
p3950
sI3808
S'trust'
p3951
sI3809
S'conference'
p3952
sI3810
S'beef'
p3953
sI3811
S'Lambert'
p3954
sI3812
S'Southern'
p3955
sI3813
S'been'
p3956
sI3814
S'quickly'
p3957
sI3815
S'confident'
p3958
sI3816
S'beer'
p3959
sI3817
S'expected'
p3960
sI3818
S'AFL-CIO'
p3961
sI3819
S'Conn.'
p3962
sI3820
S'Pennsylvania'
p3963
sI3821
S'catch'
p3964
sI3822
S'Trans'
p3965
sI3823
S'Secretary'
p3966
sI3824
S'Bush'
p3967
sI3825
S'experts'
p3968
sI3826
S'Keenan'
p3969
sI3827
S'Kremlin'
p3970
sI3828
S'complex'
p3971
sI3829
S'inventory'
p3972
sI3830
S'several'
p3973
sI3831
S'leftist'
p3974
sI3832
S'Monsanto'
p3975
sI3833
S'response'
p3976
sI3834
S'insisted'
p3977
sI3835
S'narrow'
p3978
sI3836
S'shortly'
p3979
sI3837
S'cultural'
p3980
sI3838
S'savings'
p3981
sI3839
S'greatest'
p3982
sI3840
S'agency'
p3983
sI3841
S'proposed'
p3984
sI3842
S'unemployment'
p3985
sI3843
S'able'
p3986
sI3844
S'proposes'
p3987
sI3845
S'purchasing'
p3988
sI3846
S'U.S.-Japan'
p3989
sI3847
S'Philip'
p3990
sI3848
S'enactment'
p3991
sI3849
S'gave'
p3992
sI3850
S'James'
p3993
sI3851
S'Hollander'
p3994
sI3852
S'judge'
p3995
sI3853
S'advanced'
p3996
sI3854
S'apart'
p3997
sI3855
S'59'
p3998
sI3856
S'58'
p3999
sI3857
S'gift'
p4000
sI3858
S'Shevardnadze'
p4001
sI3859
S'55'
p4002
sI3860
S'54'
p4003
sI3861
S'51'
p4004
sI3862
S'50'
p4005
sI3863
S'53'
p4006
sI3864
S'specific'
p4007
sI3865
S'offices'
p4008
sI3866
S'officer'
p4009
sI3867
S'successfully'
p4010
sI3868
S'Much'
p4011
sI3869
S'election'
p4012
sI3870
S'Department'
p4013
sI3871
S'clash'
p4014
sI3872
S'reinvest'
p4015
sI3873
S'savings-type'
p4016
sI3874
S'everything'
p4017
sI3875
S'newsprint'
p4018
sI3876
S'Accepted'
p4019
sI3877
S'He'
p4020
sI3878
S'core'
p4021
sI3879
S'corn'
p4022
sI3880
S'discount'
p4023
sI3881
S'Deposit'
p4024
sI3882
S'misleading'
p4025
sI3883
S'ensure'
p4026
sI3884
S'efforts'
p4027
sI3885
S'Gomez'
p4028
sI3886
S'Hong'
p4029
sI3887
S'presence'
p4030
sI3888
S'civil'
p4031
sI3889
S'accomplishments'
p4032
sI3890
S'RATES'
p4033
sI3891
S'expired'
p4034
sI3892
S'fought'
p4035
sI3893
S'head'
p4036
sI3894
S'attempted'
p4037
sI3895
S'removes'
p4038
sI3896
S'payable'
p4039
sI3897
S'heat'
p4040
sI3898
S'hear'
p4041
sI3899
S'furor'
p4042
sI3900
S'insider-trading'
p4043
sI3901
S'counsel'
p4044
sI3902
S'bids'
p4045
sI3903
S'Hudson'
p4046
sI3904
S'suspicions'
p4047
sI3905
S'per-capita'
p4048
sI3906
S'trip'
p4049
sI3907
S'looked'
p4050
sI3908
S'no'
p4051
sI3909
S'when'
p4052
sI3910
S'proceedings'
p4053
sI3911
S'setting'
p4054
sI3912
S'investigations'
p4055
sI3913
S'papers'
p4056
sI3914
S'Philippines'
p4057
sI3915
S'picture'
p4058
sI3916
S'EST'
p4059
sI3917
S'toad'
p4060
sI3918
S'younger'
p4061
sI3919
S'longer'
p4062
sI3920
S'American'
p4063
sI3921
S'Roger'
p4064
sI3922
S'remarkable'
p4065
sI3923
S'alternatives'
p4066
sI3924
S'focus'
p4067
sI3925
S'deliveries'
p4068
sI3926
S'leads'
p4069
sI3927
S'1.80'
p4070
sI3928
S'Today'
p4071
sI3929
S'row'
p4072
sI3930
S'Columbia'
p4073
sI3931
S'Standard'
p4074
sI3932
S'environment'
p4075
sI3933
S'charge'
p4076
sI3934
S'promoting'
p4077
sI3935
S'Day'
p4078
sI3936
S'advantage'
p4079
sI3937
S'tanks'
p4080
sI3938
S'8.63'
p4081
sI3939
S'level'
p4082
sI3940
S'posts'
p4083
sI3941
S'standards'
p4084
sI3942
S'quick'
p4085
sI3943
S'Debate'
p4086
sI3944
S'says'
p4087
sI3945
S'tougher'
p4088
sI3946
S'trend'
p4089
sI3947
S'injunction'
p4090
sI3948
S'Northwest'
p4091
sI3949
S'takeoff'
p4092
sI3950
S'substitute'
p4093
sI3951
S'drinks'
p4094
sI3952
S'Newsom'
p4095
sI3953
S'stands'
p4096
sI3954
S'goes'
p4097
sI3955
S'Nov.'
p4098
sI3956
S'Aga'
p4099
sI3957
S'pioneered'
p4100
sI3958
S'Jan.'
p4101
sI3959
S'baseball'
p4102
sI3960
S'groups'
p4103
sI3961
S'healthy'
p4104
sI3962
S'guilty'
p4105
sI3963
S'outlays'
p4106
sI3964
S'Fresca'
p4107
sI3965
S'Maine'
p4108
sI3966
S'soybeans'
p4109
sI3967
S'Brissette'
p4110
sI3968
S'Greenery'
p4111
sI3969
S'handled'
p4112
sI3970
S'third-quarter'
p4113
sI3971
S'sports'
p4114
sI3972
S'handles'
p4115
sI3973
S'memory'
p4116
sI3974
S'today'
p4117
sI3975
S'October'
p4118
sI3976
S'These'
p4119
sI3977
S'Time'
p4120
sI3978
S'cases'
p4121
sI3979
S'German'
p4122
sI3980
S'thousands'
p4123
sI3981
S'butterfat'
p4124
sI3982
S'figure'
p4125
sI3983
S'critic'
p4126
sI3984
S'dropped'
p4127
sI3985
S'UNESCO'
p4128
sI3986
S'parliamentary'
p4129
sI3987
S'requirements'
p4130
sI3988
S'1'
p4131
sI3989
S'fourth'
p4132
sI3990
S'information'
p4133
sI3991
S'Average'
p4134
sI3992
S'Lawson'
p4135
sI3993
S'Lufkin'
p4136
sI3994
S'Still'
p4137
sI3995
S'branches'
p4138
sI3996
S'125'
p4139
sI3997
S'joins'
p4140
sI3998
S'mainly'
p4141
sI3999
S'White'
p4142
sI4000
S'stock-index'
p4143
sI4001
S'Accord'
p4144
sI4002
S'courthouse'
p4145
sI4003
S'offers'
p4146
sI4004
S'Using'
p4147
sI4005
S'happened'
p4148
sI4006
S'term'
p4149
sI4007
S'name'
p4150
sI4008
S'Bros.'
p4151
sI4009
S'weighted'
p4152
sI4010
S'begun'
p4153
sI4011
S'plans'
p4154
sI4012
S'hacker'
p4155
sI4013
S'ultimately'
p4156
sI4014
S'factors'
p4157
sI4015
S'profit'
p4158
sI4016
S'factory'
p4159
sI4017
S'attracted'
p4160
sI4018
S'Schneider'
p4161
sI4019
S'Security'
p4162
sI4020
S'motion'
p4163
sI4021
S'turn'
p4164
sI4022
S'place'
p4165
sI4023
S'discontinued'
p4166
sI4024
S'revenue'
p4167
sI4025
S'Stark'
p4168
sI4026
S'soaring'
p4169
sI4027
S'array'
p4170
sI4028
S'millions'
p4171
sI4029
S'given'
p4172
sI4030
S'district'
p4173
sI4031
S'trillion'
p4174
sI4032
S'Commercial'
p4175
sI4033
S'plastic'
p4176
sI4034
S'stimulation'
p4177
sI4035
S'returns'
p4178
sI4036
S'SEC'
p4179
sI4037
S'convention'
p4180
sI4038
S'Cult'
p4181
sI4039
S'Such'
p4182
sI4040
S'white'
p4183
sI4041
S'Data'
p4184
sI4042
S'gives'
p4185
sI4043
S'exploring'
p4186
sI4044
S'Keeping'
p4187
sI4045
S'wrongdoing'
p4188
sI4046
S'season'
p4189
sI4047
S'released'
p4190
sI4048
S'holder'
p4191
sI4049
S'specify'
p4192
sI4050
S'wide'
p4193
sI4051
S'unfortunately'
p4194
sI4052
S'require'
p4195
sI4053
S'diplomatic'
p4196
sI4054
S'spokeswoman'
p4197
sI4055
S'computer'
p4198
sI4056
S'cards'
p4199
sI4057
S'and'
p4200
sI4058
S'armored'
p4201
sI4059
S'rent'
p4202
sI4060
S'sells'
p4203
sI4061
S'Venezuela'
p4204
sI4062
S'any'
p4205
sI4063
S'ideas'
p4206
sI4064
S'ideal'
p4207
sI4065
S'sure'
p4208
sI4066
S'multiple'
p4209
sI4067
S'Gandhi'
p4210
sI4068
S'cleared'
p4211
sI4069
S'GOP'
p4212
sI4070
S'considered'
p4213
sI4071
S'hungry'
p4214
sI4072
S'senior'
p4215
sI4073
S'detective'
p4216
sI4074
S'allegations'
p4217
sI4075
S'Research'
p4218
sI4076
S'Bundesbank'
p4219
sI4077
S'favor'
p4220
sI4078
S'state'
p4221
sI4079
S'crime'
p4222
sI4080
S'Louis'
p4223
sI4081
S'jazz'
p4224
sI4082
S'versions'
p4225
sI4083
S'Kong'
p4226
sI4084
S'predicted'
p4227
sI4085
S'discussing'
p4228
sI4086
S'encourages'
p4229
sI4087
S'college'
p4230
sI4088
S'slashing'
p4231
sI4089
S'Shopping'
p4232
sI4090
S'mortgage'
p4233
sI4091
S'farmers'
p4234
sI4092
S'managing'
p4235
sI4093
S'subsequent'
p4236
sI4094
S'review'
p4237
sI4095
S'commitments'
p4238
sI4096
S'weapons'
p4239
sI4097
S'outside'
p4240
sI4098
S'toying'
p4241
sI4099
S'U.S.'
p4242
sI4100
S'diners'
p4243
sI4101
S'cities'
p4244
sI4102
S'come'
p4245
sI4103
S'reaction'
p4246
sI4104
S'acquiring'
p4247
sI4105
S'missions'
p4248
sI4106
S'region'
p4249
sI4107
S'contract'
p4250
sI4108
S'1984'
p4251
sI4109
S'Investment'
p4252
sI4110
S'color'
p4253
sI4111
S'promises'
p4254
sI4112
S'insist'
p4255
sI4113
S'61'
p4256
sI4114
S'62'
p4257
sI4115
S'Jahn'
p4258
sI4116
S'66'
p4259
sI4117
S'approval'
p4260
sI4118
S'68'
p4261
sI4119
S'two-year'
p4262
sI4120
S'late'
p4263
sI4121
S'Electric'
p4264
sI4122
S'But'
p4265
sI4123
S'coupe'
p4266
sI4124
S'hardly'
p4267
sI4125
S'500'
p4268
sI4126
S'engine'
p4269
sI4127
S'direction'
p4270
sI4128
S'blessing'
p4271
sI4129
S'Deseret'
p4272
sI4130
S'minister'
p4273
sI4131
S'pilot'
p4274
sI4132
S'case'
p4275
sI4133
S'myself'
p4276
sI4134
S'cash'
p4277
sI4135
S'Laurel'
p4278
sI4136
S'telephone'
p4279
sI4137
S'refinery'
p4280
sI4138
S'granted'
p4281
sI4139
S'check'
p4282
sI4140
S'physical'
p4283
sI4141
S'events'
p4284
sI4142
S'week'
p4285
sI4143
S'high-production'
p4286
sI4144
S'refusal'
p4287
sI4145
S'Rockefeller'
p4288
sI4146
S'producers'
p4289
sI4147
S'first-half'
p4290
sI4148
S'delicate'
p4291
sI4149
S'Banks'
p4292
sI4150
S'changing'
p4293
sI4151
S'Is'
p4294
sI4152
S'It'
p4295
sI4153
S'without'
p4296
sI4154
S'relief'
p4297
sI4155
S'components'
p4298
sI4156
S'In'
p4299
sI4157
S'researchers'
p4300
sI4158
S'If'
p4301
sI4159
S'United'
p4302
sI4160
S'Pine'
p4303
sI4161
S'violent'
p4304
sI4162
S'kill'
p4305
sI4163
S'Enfield'
p4306
sI4164
S'announcement'
p4307
sI4165
S'rose'
p4308
sI4166
S'seems'
p4309
sI4167
S'1.8200'
p4310
sI4168
S'bloc'
p4311
sI4169
S'disrupt'
p4312
sI4170
S'sea'
p4313
sI4171
S'scheduled'
p4314
sI4172
S'Amendment'
p4315
sI4173
S'Many'
p4316
sI4174
S'Camp'
p4317
sI4175
S'Ortega'
p4318
sI4176
S'inflation'
p4319
sI4177
S'accepted'
p4320
sI4178
S'U.N.'
p4321
sI4179
S'furniture'
p4322
sI4180
S'N.V.'
p4323
sI4181
S'heredity'
p4324
sI4182
S'reduced'
p4325
sI4183
S'1989'
p4326
sI4184
S'Since'
p4327
sI4185
S'International'
p4328
sI4186
S'provided'
p4329
sI4187
S'mood'
p4330
sI4188
S'legal'
p4331
sI4189
S'provides'
p4332
sI4190
S'provider'
p4333
sI4191
S'Goya'
p4334
sI4192
S'on'
p4335
sI4193
S'of'
p4336
sI4194
S'discussed'
p4337
sI4195
S'stand'
p4338
sI4196
S'or'
p4339
sI4197
S'instruments'
p4340
sI4198
S'spinal'
p4341
sI4199
S'rising'
p4342
sI4200
S'Nabisco'
p4343
sI4201
S'strictly'
p4344
sI4202
S'there'
p4345
sI4203
S'alleged'
p4346
sI4204
S'strict'
p4347
sI4205
S'Infiniti'
p4348
sI4206
S'alleges'
p4349
sI4207
S'promote'
p4350
sI4208
S'triple-A'
p4351
sI4209
S'street-corner'
p4352
sI4210
S'wholesale'
p4353
sI4211
S'Toronto'
p4354
sI4212
S'totaling'
p4355
sI4213
S'99.1875'
p4356
sI4214
S'politics'
p4357
sI4215
S'Panisse'
p4358
sI4216
S'4.5'
p4359
sI4217
S'4.4'
p4360
sI4218
S'onerous'
p4361
sI4219
S'4.3'
p4362
sI4220
S'4.2'
p4363
sI4221
S'4.9'
p4364
sI4222
S'narrowing'
p4365
sI4223
S'5'
p4366
sI4224
S'Panhandle'
p4367
sI4225
S'Ross'
p4368
sI4226
S'Johnstown'
p4369
sI4227
S'Jaguar'
p4370
sI4228
S'separate'
p4371
sI4229
S'includes'
p4372
sI4230
S'serious'
p4373
sI4231
S'included'
p4374
sI4232
S'funding'
p4375
sI4233
S'stocks'
p4376
sI4234
S'arsenals'
p4377
sI4235
S'calls'
p4378
sI4236
S'wife'
p4379
sI4237
S'invest'
p4380
sI4238
S'directors'
p4381
sI4239
S'follow'
p4382
sI4240
S'settlement'
p4383
sI4241
S'decisions'
p4384
sI4242
S'participants'
p4385
sI4243
S'opportunities'
p4386
sI4244
S'program'
p4387
sI4245
S'dairy'
p4388
sI4246
S'lawmakers'
p4389
sI4247
S'activities'
p4390
sI4248
S'woman'
p4391
sI4249
S'song'
p4392
sI4250
S'far'
p4393
sI4251
S'Alaska'
p4394
sI4252
S'fat'
p4395
sI4253
S'Erwin'
p4396
sI4254
S'worst'
p4397
sI4255
S'abandoned'
p4398
sI4256
S'list'
p4399
sI4257
S'rate'
p4400
sI4258
S'design'
p4401
sI4259
S'Interest'
p4402
sI4260
S'East'
p4403
sI4261
S'what'
p4404
sI4262
S'version'
p4405
sI4263
S'thrift'
p4406
sI4264
S'naval'
p4407
sI4265
S'allows'
p4408
sI4266
S'Cranston-Mitchell'
p4409
sI4267
S'options'
p4410
sI4268
S'sticking'
p4411
sI4269
S'arms-control'
p4412
sI4270
S'markets'
p4413
sI4271
S'minor'
p4414
sI4272
S'Manville'
p4415
sI4273
S'flat'
p4416
sI4274
S'Intel'
p4417
sI4275
S'Mass'
p4418
sI4276
S'stick'
p4419
sI4277
S'benefits'
p4420
sI4278
S'mellow'
p4421
sI4279
S'Zell'
p4422
sI4280
S'forward-rate'
p4423
sI4281
S'Inc'
p4424
sI4282
S'Lyphomed'
p4425
sI4283
S'protects'
p4426
sI4284
S'chores'
p4427
sI4285
S'Parliament'
p4428
sI4286
S'5.4'
p4429
sI4287
S'rather'
p4430
sI4288
S'breaking'
p4431
sI4289
S'someone'
p4432
sI4290
S'stemming'
p4433
sI4291
S'speeding'
p4434
sI4292
S'prepayment'
p4435
sI4293
S'Broberg'
p4436
sI4294
S'Foreign'
p4437
sI4295
S'reflect'
p4438
sI4296
S'trucks'
p4439
sI4297
S'short'
p4440
sI4298
S'stadiums'
p4441
sI4299
S'Democrats'
p4442
sI4300
S'began'
p4443
sI4301
S'turnover'
p4444
sI4302
S'developed'
p4445
sI4303
S'Nikko'
p4446
sI4304
S'style'
p4447
sI4305
S'March'
p4448
sI4306
S'might'
p4449
sI4307
S'return'
p4450
sI4308
S'communities'
p4451
sI4309
S'bigger'
p4452
sI4310
S'Telephone'
p4453
sI4311
S'characterized'
p4454
sI4312
S'generation'
p4455
sI4313
S'expect'
p4456
sI4314
S'More'
p4457
sI4315
S'Samuel'
p4458
sI4316
S'health'
p4459
sI4317
S'cost-cutting'
p4460
sI4318
S'disagree'
p4461
sI4319
S'Transportation'
p4462
sI4320
S'generate'
p4463
sI4321
S'People'
p4464
sI4322
S'Expect'
p4465
sI4323
S'feed'
p4466
sI4324
S'feel'
p4467
sI4325
S'fancy'
p4468
sI4326
S'feet'
p4469
sI4327
S'fees'
p4470
sI4328
S'slower'
p4471
sI4329
S'speedometer'
p4472
sI4330
S'passes'
p4473
sI4331
S'story'
p4474
sI4332
S'leading'
p4475
sI4333
S'collar'
p4476
sI4334
S'passed'
p4477
sI4335
S'finances'
p4478
sI4336
S'Matthews'
p4479
sI4337
S'convinced'
p4480
sI4338
S'king'
p4481
sI4339
S'kind'
p4482
sI4340
S'double'
p4483
sI4341
S'risks'
p4484
sI4342
S'obstacles'
p4485
sI4343
S'outstanding'
p4486
sI4344
S'strengthen'
p4487
sI4345
S'imports'
p4488
sI4346
S'Germany'
p4489
sI4347
S'Red'
p4490
sI4348
S'finding'
p4491
sI4349
S'Germans'
p4492
sI4350
S'added'
p4493
sI4351
S'measures'
p4494
sI4352
S'reach'
p4495
sI4353
S'76'
p4496
sI4354
S'75'
p4497
sI4355
S'shareholder'
p4498
sI4356
S'72'
p4499
sI4357
S'70'
p4500
sI4358
S'nothing'
p4501
sI4359
S'Kleinwort'
p4502
sI4360
S'soared'
p4503
sI4361
S'constitution'
p4504
sI4362
S'Mehl'
p4505
sI4363
S'dealers'
p4506
sI4364
S'45-year-old'
p4507
sI4365
S'traditional'
p4508
sI4366
S'institutions'
p4509
sI4367
S'Majority'
p4510
sI4368
S'Keating'
p4511
sI4369
S'67'
p4512
sI4370
S'penalty'
p4513
sI4371
S'rubles'
p4514
sI4372
S'his'
p4515
sI4373
S'founding'
p4516
sI4374
S'gains'
p4517
sI4375
S'mortgage-backed'
p4518
sI4376
S'Gramm-Rudman'
p4519
sI4377
S'him'
p4520
sI4378
S'grievances'
p4521
sI4379
S'J.'
p4522
sI4380
S'activity'
p4523
sI4381
S'wrote'
p4524
sI4382
S'achieved'
p4525
sI4383
S'declines'
p4526
sI4384
S'defense'
p4527
sI4385
S'are'
p4528
sI4386
S'chambers'
p4529
sI4387
S'arm'
p4530
sI4388
S'declined'
p4531
sI4389
S'2.4'
p4532
sI4390
S'Critics'
p4533
sI4391
S'Cambria'
p4534
sI4392
S'downturn'
p4535
sI4393
S'corruption'
p4536
sI4394
S'recently'
p4537
sI4395
S'creating'
p4538
sI4396
S'initially'
p4539
sI4397
S'sold'
p4540
sI4398
S'attention'
p4541
sI4399
S'general-purpose'
p4542
sI4400
S'succeed'
p4543
sI4401
S'opposition'
p4544
sI4402
S'African'
p4545
sI4403
S'franchise'
p4546
sI4404
S'AND'
p4547
sI4405
S'license'
p4548
sI4406
S'became'
p4549
sI4407
S'Cotton'
p4550
sI4408
S'flies'
p4551
sI4409
S'reasons'
p4552
sI4410
S'S-Cargo'
p4553
sI4411
S'bolster'
p4554
sI4412
S'decline'
p4555
sI4413
S'duo'
p4556
sI4414
S'political'
p4557
sI4415
S'due'
p4558
sI4416
S'strategy'
p4559
sI4417
S'whom'
p4560
sI4418
S'woke'
p4561
sI4419
S'precision'
p4562
sI4420
S'brokers'
p4563
sI4421
S'demand'
p4564
sI4422
S'plants'
p4565
sI4423
S'stolen'
p4566
sI4424
S'warrant'
p4567
sI4425
S'Sales'
p4568
sI4426
S'Advancing'
p4569
sI4427
S'City'
p4570
sI4428
S'19.7'
p4571
sI4429
S'Italy'
p4572
sI4430
S'Sumitomo'
p4573
sI4431
S'disappointing'
p4574
sI4432
S'obstacle'
p4575
sI4433
S'examiners'
p4576
sI4434
S'Co.'
p4577
sI4435
S'lengthy'
p4578
sI4436
S'Chicago-based'
p4579
sI4437
S'Penney'
p4580
sI4438
S'rosy'
p4581
sI4439
S'widely'
p4582
sI4440
S'peoples'
p4583
sI4441
S'9'
p4584
sI4442
S'advise'
p4585
sI4443
S'higher'
p4586
sI4444
S'About'
p4587
sI4445
S'regulator'
p4588
sI4446
S'negotiate'
p4589
sI4447
S'flows'
p4590
sI4448
S'Itel'
p4591
sI4449
S'moving'
p4592
sI4450
S'Drug'
p4593
sI4451
S'robust'
p4594
sI4452
S'lower'
p4595
sI4453
S'Miller'
p4596
sI4454
S'anybody'
p4597
sI4455
S'Food'
p4598
sI4456
S'cheer'
p4599
sI4457
S'edge'
p4600
sI4458
S'machinery'
p4601
sI4459
S'Cos.'
p4602
sI4460
S'pollen'
p4603
sI4461
S'grievance'
p4604
sI4462
S'polled'
p4605
sI4463
S'competitive'
p4606
sI4464
S'questions'
p4607
sI4465
S'profitable'
p4608
sI4466
S'advisers'
p4609
sI4467
S'workers'
p4610
sI4468
S'exclusively'
p4611
sI4469
S'Justice'
p4612
sI4470
S'customers'
p4613
sI4471
S'Air'
p4614
sI4472
S'necessary'
p4615
sI4473
S'message'
p4616
sI4474
S'paralyzed'
p4617
sI4475
S'new-model'
p4618
sI4476
S'3.6'
p4619
sI4477
S'3.5'
p4620
sI4478
S'3.8'
p4621
sI4479
S'Fund'
p4622
sI4480
S'bankruptcy-law'
p4623
sI4481
S'clarinetist'
p4624
sI4482
S'refused'
p4625
sI4483
S'aloft'
p4626
sI4484
S'pipeline'
p4627
sI4485
S'Square'
p4628
sI4486
S'Communications'
p4629
sI4487
S'range'
p4630
sI4488
S'Everything'
p4631
sI4489
S'Bouygues'
p4632
sI4490
S'canal'
p4633
sI4491
S'question'
p4634
sI4492
S'long'
p4635
sI4493
S'Georgia-Pacific'
p4636
sI4494
S'scared'
p4637
sI4495
S'files'
p4638
sI4496
S'plunge'
p4639
sI4497
S'goods-producing'
p4640
sI4498
S'Ms.'
p4641
sI4499
S'repeatedly'
p4642
sI4500
S'Ltd.'
p4643
sI4501
S'filed'
p4644
sI4502
S'Austin'
p4645
sI4503
S'raising'
p4646
sI4504
S'Loan'
p4647
sI4505
S'par'
p4648
sI4506
S'called'
p4649
sI4507
S'OTC'
p4650
sI4508
S'associated'
p4651
sI4509
S'associates'
p4652
sI4510
S'rally'
p4653
sI4511
S'peace'
p4654
sI4512
S'income'
p4655
sI4513
S'TNT'
p4656
sI4514
S'problems'
p4657
sI4515
S'helping'
p4658
sI4516
S'generated'
p4659
sI4517
S'allowing'
p4660
sI4518
S'vice'
p4661
sI4519
S'departments'
p4662
sI4520
S'broad'
p4663
sI4521
S'Oakland'
p4664
sI4522
S'once'
p4665
sI4523
S'issued'
p4666
sI4524
S'resistance'
p4667
sI4525
S'However'
p4668
sI4526
S'adjustment'
p4669
sI4527
S'contributions'
p4670
sI4528
S'issues'
p4671
sI4529
S'rigidity'
p4672
sI4530
S'UAW'
p4673
sI4531
S'UAL'
p4674
sI4532
S'stable'
p4675
sI4533
S'include'
p4676
sI4534
S'drinking'
p4677
sI4535
S'notes'
p4678
sI4536
S'noted'
p4679
sI4537
S'concluded'
p4680
sI4538
S'smaller'
p4681
sI4539
S'Hutton'
p4682
sI4540
S'State'
p4683
sI4541
S'growers'
p4684
sI4542
S'makers'
p4685
sI4543
S'waiting'
p4686
sI4544
S'capital'
p4687
sI4545
S'chose'
p4688
sI4546
S'degree'
p4689
sI4547
S'pushing'
p4690
sI4548
S'leaving'
p4691
sI4549
S'Motor'
p4692
sI4550
S'regulations'
p4693
sI4551
S'heart'
p4694
sI4552
S'Robert'
p4695
sI4553
S'41.60'
p4696
sI4554
S'motor'
p4697
sI4555
S'apply'
p4698
sI4556
S'use'
p4699
sI4557
S'fee'
p4700
sI4558
S'from'
p4701
sI4559
S'consumption'
p4702
sI4560
S'&'
p4703
sI4561
S'142.85'
p4704
sI4562
S'Hun'
p4705
sI4563
S'few'
p4706
sI4564
S'examination'
p4707
sI4565
S'timetable'
p4708
sI4566
S'start'
p4709
sI4567
S'sort'
p4710
sI4568
S'Lane'
p4711
sI4569
S'journalists'
p4712
sI4570
S'inclined'
p4713
sI4571
S'stroke'
p4714
sI4572
S'Prime'
p4715
sI4573
S'120-day'
p4716
sI4574
S'Northern'
p4717
sI4575
S'0.2'
p4718
sI4576
S'tax'
p4719
sI4577
S'something'
p4720
sI4578
S'Party'
p4721
sI4579
S'Laidig'
p4722
sI4580
S'sit'
p4723
sI4581
S'six'
p4724
sI4582
S'traders'
p4725
sI4583
S'dismissing'
p4726
sI4584
S'instead'
p4727
sI4585
S'panic'
p4728
sI4586
S'banned'
p4729
sI4587
S'tack'
p4730
sI4588
S'Terms'
p4731
sI4589
S'light'
p4732
sI4590
S'badges'
p4733
sI4591
S'ships'
p4734
sI4592
S'permanent'
p4735
sI4593
S'covered'
p4736
sI4594
S'holiday'
p4737
sI4595
S'pending'
p4738
sI4596
S'crash'
p4739
sI4597
S'material'
p4740
sI4598
S'Tass'
p4741
sI4599
S'investor'
p4742
sI4600
S'fled'
p4743
sI4601
S'subsidiaries'
p4744
sI4602
S'Spencer'
p4745
sI4603
S'bills'
p4746
sI4604
S'eases'
p4747
sI4605
S'lawful'
p4748
sI4606
S'related'
p4749
sI4607
S'89'
p4750
sI4608
S'our'
p4751
sI4609
S'80'
p4752
sI4610
S'85'
p4753
sI4611
S'supports'
p4754
sI4612
S'thrifts'
p4755
sI4613
S'disclose'
p4756
sI4614
S'This'
p4757
sI4615
S'southern'
p4758
sI4616
S'Rubendall'
p4759
sI4617
S'galvanized'
p4760
sI4618
S'North'
p4761
sI4619
S'nerves'
p4762
sI4620
S'priority'
p4763
sI4621
S'their'
p4764
sI4622
S'Coates'
p4765
sI4623
S'shelf'
p4766
sI4624
S'doomed'
p4767
sI4625
S'debate'
p4768
sI4626
S'reflecting'
p4769
sI4627
S'20-year'
p4770
sI4628
S'hearings'
p4771
sI4629
S'patients'
p4772
sI4630
S'Peter'
p4773
sI4631
S'1.4'
p4774
sI4632
S'1.5'
p4775
sI4633
S'1.6'
p4776
sI4634
S'1.7'
p4777
sI4635
S'1.1'
p4778
sI4636
S'1.2'
p4779
sI4637
S'1.3'
p4780
sI4638
S'1.8'
p4781
sI4639
S'Metromedia'
p4782
sI4640
S'linked'
p4783
sI4641
S'After'
p4784
sI4642
S'which'
p4785
sI4643
S'combat'
p4786
sI4644
S'collaboration'
p4787
sI4645
S'who'
p4788
sI4646
S'accountants'
p4789
sI4647
S'class'
p4790
sI4648
S'guinea'
p4791
sI4649
S'goals'
p4792
sI4650
S'chances'
p4793
sI4651
S'agreed'
p4794
sI4652
S'Chemical'
p4795
sI4653
S'fear'
p4796
sI4654
S'feat'
p4797
sI4655
S'pleased'
p4798
sI4656
S'litigation'
p4799
sI4657
S'bottling'
p4800
sI4658
S'candidates'
p4801
sI4659
S'local'
p4802
sI4660
S'nonunion'
p4803
sI4661
S'Wathen'
p4804
sI4662
S'watching'
p4805
sI4663
S'ones'
p4806
sI4664
S'THE'
p4807
sI4665
S'brain'
p4808
sI4666
S'Sullivan'
p4809
sI4667
S'view'
p4810
sI4668
S'Burnham'
p4811
sI4669
S'acquired'
p4812
sI4670
S'Britain'
p4813
sI4671
S'closed'
p4814
sI4672
S'frustrated'
p4815
sI4673
S'bought'
p4816
sI4674
S'ability'
p4817
sI4675
S'opening'
p4818
sI4676
S'agencies'
p4819
sI4677
S'job'
p4820
sI4678
S'takeover'
p4821
sI4679
S'declining'
p4822
sI4680
S'grain'
p4823
sI4681
S'urging'
p4824
sI4682
S'packaging'
p4825
sI4683
S'Finally'
p4826
sI4684
S'table'
p4827
sI4685
S'flashes'
p4828
sI4686
S'commodities'
p4829
sI4687
S'trademark'
p4830
sI4688
S'arbitrator'
p4831
sI4689
S'agreements'
p4832
sI4690
S'Benson'
p4833
sI4691
S'Exxon'
p4834
sI4692
S'sufficient'
p4835
sI4693
S'full-time'
p4836
sI4694
S'scrutiny'
p4837
sI4695
S'Credit'
p4838
sI4696
S'ensuring'
p4839
sI4697
S'CDs'
p4840
sI4698
S'improved'
p4841
sI4699
S'Navigation'
p4842
sI4700
S'present'
p4843
sI4701
S'Force'
p4844
sI4702
S'unlike'
p4845
sI4703
S'appropriations'
p4846
sI4704
S'will'
p4847
sI4705
S'PLC'
p4848
sI4706
S'Taiwan'
p4849
sI4707
S'supply'
p4850
sI4708
S'barely'
p4851
sI4709
S'thus'
p4852
sI4710
S'audiences'
p4853
sI4711
S'perhaps'
p4854
sI4712
S'privileges'
p4855
sI4713
S'member'
p4856
sI4714
S'adverse'
p4857
sI4715
S'largest'
p4858
sI4716
S'units'
p4859
sI4717
S'gets'
p4860
sI4718
S'difficult'
p4861
sI4719
S'Third'
p4862
sI4720
S'lobby'
p4863
sI4721
S'Houston'
p4864
sI4722
S'whole'
p4865
sI4723
S'States'
p4866
sI4724
S'StatesWest'
p4867
sI4725
S'decliners'
p4868
sI4726
S'Shearson'
p4869
sI4727
S'MacMillan'
p4870
sI4728
S'routinely'
p4871
sI4729
S'heavily'
p4872
sI4730
S'Nicholas'
p4873
sI4731
S'Tower'
p4874
sI4732
S'rapid'
p4875
sI4733
S'InfoCorp'
p4876
sI4734
S'Far'
p4877
sI4735
S'other'
p4878
sI4736
S'adoption'
p4879
sI4737
S'attractive'
p4880
sI4738
S'provisions'
p4881
sI4739
S'protesters'
p4882
sI4740
S'know'
p4883
sI4741
S'press'
p4884
sI4742
S'loses'
p4885
sI4743
S'taxpayers'
p4886
sI4744
S'7/16'
p4887
sI4745
S'parity'
p4888
sI4746
S'because'
p4889
sI4747
S'tumble'
p4890
sI4748
S'Sun'
p4891
sI4749
S'Section'
p4892
sI4750
S'growth'
p4893
sI4751
S'employment'
p4894
sI4752
S'lead'
p4895
sI4753
S'Singapore'
p4896
sI4754
S'Shere'
p4897
sI4755
S'leader'
p4898
sI4756
S'27.1'
p4899
sI4757
S'22.8'
p4900
sI4758
S'Brothers'
p4901
sI4759
S'rare'
p4902
sI4760
S'carried'
p4903
sI4761
S'getting'
p4904
sI4762
S'contract-drilling'
p4905
sI4763
S'shipping'
p4906
sI4764
S'surge'
p4907
sI4765
S'carries'
p4908
sI4766
S'carrier'
p4909
sI4767
S'Americans'
p4910
sI4768
S'own'
p4911
sI4769
S'owe'
p4912
sI4770
S'warrants'
p4913
sI4771
S'nests'
p4914
sI4772
S'promise'
p4915
sI4773
S'registration'
p4916
sI4774
S'significantly'
p4917
sI4775
S'2.50'
p4918
sI4776
S'transfer'
p4919
sI4777
S'breeding'
p4920
sI4778
S'Carl'
p4921
sI4779
S'triggered'
p4922
sI4780
S'funds'
p4923
sI4781
S'Detroit'
p4924
sI4782
S'volume'
p4925
sI4783
S'squeeze'
p4926
sI4784
S'made'
p4927
sI4785
S'tactics'
p4928
sI4786
S'Gold'
p4929
sI4787
S'whether'
p4930
sI4788
S'meeting'
p4931
sI4789
S'record'
p4932
sI4790
S'below'
p4933
sI4791
S'ruling'
p4934
sI4792
S'200,000'
p4935
sI4793
S'Gillette'
p4936
sI4794
S'Electronics'
p4937
sI4795
S"'ll"
p4938
sI4796
S'Fuji'
p4939
sI4797
S'book'
p4940
sI4798
S'Five'
p4941
sI4799
S'sick'
p4942
sI4800
S'kinds'
p4943
sI4801
S'shredded'
p4944
sI4802
S'contends'
p4945
sI4803
S'income-tax'
p4946
sI4804
S'Weaver'
p4947
sI4805
S'gap'
p4948
sI4806
S'4.25'
p4949
sI4807
S'Cambodian'
p4950
ssS'id2label_dict'
p4951
(dp4952
I0
S'rroot'
p4953
sI1
S'cc'
p4954
sI2
S'number'
p4955
sI3
S'ccomp'
p4956
sI4
S'possessive'
p4957
sI5
S'prt'
p4958
sI6
S'num'
p4959
sI7
S'nsubjpass'
p4960
sI8
S'csubj'
p4961
sI9
S'conj'
p4962
sI10
S'dobj'
p4963
sI11
S'nn'
p4964
sI12
S'neg'
p4965
sI13
S'discourse'
p4966
sI14
S'mark'
p4967
sI15
S'auxpass'
p4968
sI16
S'infmod'
p4969
sI17
S'mwe'
p4970
sI18
S'advcl'
p4971
sI19
S'aux'
p4972
sI20
S'prep'
p4973
sI21
S'parataxis'
p4974
sI22
S'nsubj'
p4975
sI23
S'<null>'
p4976
sI24
S'rcmod'
p4977
sI25
S'advmod'
p4978
sI26
S'punct'
p4979
sI27
S'quantmod'
p4980
sI28
S'tmod'
p4981
sI29
S'acomp'
p4982
sI30
S'pcomp'
p4983
sI31
S'poss'
p4984
sI32
S'npadvmod'
p4985
sI33
S'xcomp'
p4986
sI34
S'cop'
p4987
sI35
S'partmod'
p4988
sI36
S'dep'
p4989
sI37
S'appos'
p4990
sI38
S'det'
p4991
sI39
S'amod'
p4992
sI40
S'pobj'
p4993
sI41
S'iobj'
p4994
sI42
S'expl'
p4995
sI43
S'predet'
p4996
sI44
S'preconj'
p4997
sI45
S'root'
p4998
ssS'label2id_dict'
p4999
(dp5000
g4953
I0
sg4954
I1
sg4955
I2
sg4956
I3
sg4957
I4
sg4958
I5
sg4959
I6
sg4960
I7
sg4961
I8
sg4962
I9
sg4992
I39
sg4964
I11
sg4965
I12
sg4966
I13
sg4967
I14
sg4968
I15
sg4969
I16
sg4970
I17
sg4971
I18
sg4972
I19
sg4973
I20
sg4974
I21
sg4975
I22
sg4976
I23
sg4977
I24
sg4978
I25
sg4979
I26
sg4980
I27
sg4981
I28
sg4982
I29
sg4983
I30
sg4984
I31
sg4985
I32
sg4986
I33
sg4987
I34
sg4988
I35
sg4989
I36
sg4990
I37
sg4991
I38
sg4963
I10
sg4993
I40
sg4994
I41
sg4995
I42
sg4996
I43
sg4997
I44
sg4998
I45
ssS'word2id_dict'
p5001
(dp5002
g3769
I3626
sg1303
I1158
sg1304
I1159
sg1863
I1718
sg1307
I1162
sg151
I3
sg3771
I3628
sg2519
I2375
sg152
I4
sg1309
I1164
sg2520
I2376
sg2521
I2377
sg3772
I3629
sg1310
I1165
sg153
I5
sg723
I576
sg1311
I1166
sg2522
I2378
sg1312
I1167
sg3774
I3631
sg3775
I3632
sg156
I8
sg157
I9
sg2523
I2379
sg3776
I3633
sg542
I395
sg158
I10
sg3777
I3634
sg2381
I2237
sg159
I11
sg3778
I3635
sg1314
I1169
sg4516
I4373
sg1277
I1132
sg2099
I1954
sg3779
I3636
sg2581
I2437
sg160
I12
sg3781
I3638
sg226
I78
sg2288
I2144
sg3667
I3524
sg4566
I4423
sg3783
I3640
sg2526
I2382
sg2527
I2383
sg2528
I2384
sg3784
I3641
sg2529
I2385
sg163
I15
sg1996
I1851
sg2530
I2386
sg3770
I3627
sg164
I16
sg165
I17
sg1316
I1171
sg2532
I2388
sg2313
I2169
sg2533
I2389
sg2534
I2390
sg1720
I1575
sg1317
I1172
sg166
I18
sg167
I19
sg1318
I1173
sg2536
I2392
sg725
I578
sg168
I20
sg1319
I1174
sg2537
I2393
sg3786
I3643
sg169
I21
sg170
I22
sg171
I23
sg906
I760
sg2538
I2394
sg726
I579
sg3789
I3646
sg3790
I3647
sg3791
I3648
sg1992
I1847
sg1320
I1175
sg173
I25
sg174
I26
sg3792
I3649
sg3793
I3650
sg1321
I1176
sg175
I27
sg1322
I1177
sg3794
I3651
sg2540
I2396
sg1323
I1178
sg176
I28
sg177
I29
sg2482
I2338
sg1315
I1170
sg1722
I1577
sg178
I30
sg179
I31
sg2677
I2534
sg2543
I2399
sg2317
I2173
sg2685
I2542
sg3798
I3655
sg2545
I2401
sg311
I163
sg180
I32
sg1324
I1179
sg1325
I1180
sg3799
I3656
sg181
I33
sg182
I34
sg1907
I1762
sg2289
I2145
sg328
I180
sg2548
I2404
sg184
I36
sg185
I37
sg3800
I3657
sg1328
I1183
sg186
I38
sg1329
I1184
sg3801
I3658
sg2553
I2409
sg2554
I2410
sg2555
I2411
sg1908
I1763
sg1330
I1185
sg3736
I3593
sg2730
I2587
sg2723
I2580
sg2727
I2584
sg1331
I1186
sg1332
I1187
sg188
I40
sg1126
I981
sg189
I41
sg2556
I2412
sg2557
I2413
sg190
I42
sg2421
I2277
sg191
I43
sg192
I44
sg2752
I2609
sg3808
I3665
sg193
I45
sg194
I46
sg3809
I3666
sg3810
I3667
sg2470
I2326
sg2558
I2414
sg910
I764
sg2559
I2415
sg3678
I3535
sg2560
I2416
sg195
I47
sg196
I48
sg2561
I2417
sg2584
I2440
sg1335
I1190
sg3381
I3238
sg197
I49
sg1336
I1191
sg1526
I1381
sg198
I50
sg912
I766
sg1337
I1192
sg3812
I3669
sg199
I51
sg3813
I3670
sg1906
I1761
sg1950
I1805
sg3814
I3671
sg353
I206
sg3816
I3673
sg1339
I1194
sg200
I52
sg3817
I3674
sg201
I53
sg2566
I2422
sg2567
I2423
sg202
I54
sg1340
I1195
sg2917
I2774
sg3818
I3675
sg203
I55
sg204
I56
sg205
I57
sg549
I402
sg1224
I1079
sg206
I58
sg3820
I3677
sg444
I297
sg916
I770
sg2563
I2419
sg1829
I1684
sg1342
I1197
sg207
I59
sg208
I60
sg209
I61
sg1343
I1198
sg210
I62
sg162
I14
sg1345
I1200
sg1346
I1201
sg1347
I1202
sg3824
I3681
sg1348
I1203
sg2850
I2707
sg2572
I2428
sg211
I63
sg2122
I1977
sg1349
I1204
sg2574
I2430
sg2091
I1946
sg2575
I2431
sg3384
I3241
sg1350
I1205
sg3825
I3682
sg470
I323
sg471
I324
sg3968
I3825
sg2346
I2202
sg213
I65
sg3826
I3683
sg214
I66
sg3827
I3684
sg1670
I1525
sg2318
I2174
sg183
I35
sg216
I68
sg1352
I1207
sg2736
I2593
sg2578
I2434
sg3744
I3601
sg496
I349
sg1353
I1208
sg4391
I4248
sg2809
I2666
sg505
I358
sg2889
I2746
sg2320
I2176
sg3830
I3687
sg1354
I1209
sg3780
I3637
sg3831
I3688
sg619
I472
sg3832
I3689
sg1355
I1210
sg1594
I1449
sg1356
I1211
sg1357
I1212
sg1358
I1213
sg218
I70
sg219
I71
sg220
I72
sg221
I73
sg2582
I2438
sg3263
I3120
sg1359
I1214
sg3834
I3691
sg1360
I1215
sg4577
I4434
sg1361
I1216
sg224
I76
sg1362
I1217
sg3836
I3693
sg161
I13
sg2585
I2441
sg227
I79
sg1363
I1218
sg1364
I1219
sg1365
I1220
sg1366
I1221
sg228
I80
sg1911
I1766
sg3838
I3695
sg1730
I1585
sg2587
I2443
sg1367
I1222
sg2588
I2444
sg2589
I2445
sg2590
I2446
sg2591
I2447
sg3839
I3696
sg229
I81
sg2593
I2449
sg3840
I3697
sg3841
I3698
sg231
I83
sg2595
I2451
sg2940
I2797
sg232
I84
sg3843
I3700
sg2596
I2452
sg2891
I2748
sg233
I85
sg2981
I2838
sg2597
I2453
sg1368
I1223
sg1369
I1224
sg234
I86
sg2599
I2455
sg553
I406
sg1370
I1225
sg2600
I2456
sg235
I87
sg3157
I3014
sg236
I88
sg1371
I1226
sg2435
I2291
sg1372
I1227
sg1373
I1228
sg1374
I1229
sg554
I407
sg1376
I1231
sg1377
I1232
sg1378
I1233
sg1379
I1234
sg2216
I2072
sg2601
I2457
sg239
I91
sg4278
I4135
sg240
I92
sg1380
I1235
sg2604
I2460
sg1381
I1236
sg3848
I3705
sg629
I482
sg1382
I1237
sg3850
I3707
sg3851
I3708
sg1383
I1238
sg2607
I2464
sg241
I93
sg2608
I2465
sg3972
I3829
sg1384
I1239
sg1385
I1240
sg2609
I2466
sg2081
I1936
sg2610
I2467
sg242
I94
sg3391
I3248
sg2531
I2387
sg1386
I1241
sg243
I95
sg2612
I2469
sg3584
I3441
sg1387
I1242
sg556
I409
sg245
I97
sg1388
I1243
sg1389
I1244
sg246
I98
sg3854
I3711
sg2613
I2470
sg3565
I3422
sg2614
I2471
sg672
I525
sg3855
I3712
sg2615
I2472
sg2616
I2473
sg2617
I2474
sg3858
I3715
sg2620
I2477
sg1391
I1246
sg1392
I1247
sg3859
I3716
sg684
I537
sg1393
I1248
sg248
I100
sg1737
I1592
sg1528
I1383
sg249
I101
sg1394
I1249
sg1141
I996
sg1395
I1250
sg1396
I1251
sg2624
I2481
sg558
I411
sg2114
I1969
sg2625
I2482
sg3864
I3721
sg250
I102
sg251
I103
sg2627
I2484
sg2948
I2805
sg2628
I2485
sg252
I104
sg253
I105
sg1397
I1252
sg3865
I3722
sg2501
I2357
sg3866
I3723
sg254
I106
sg2629
I2486
sg2912
I2769
sg1398
I1253
sg2630
I2487
sg2116
I1971
sg255
I107
sg2535
I2391
sg1137
I992
sg2745
I2602
sg2631
I2488
sg3868
I3725
sg1740
I1595
sg2632
I2489
sg256
I108
sg1263
I1118
sg1399
I1254
sg2396
I2252
sg1400
I1255
sg257
I109
sg4172
I4029
sg3869
I3726
sg1401
I1256
sg1402
I1257
sg1403
I1258
sg3870
I3727
sg3871
I3728
sg3872
I3729
sg2635
I2492
sg259
I111
sg2636
I2493
sg260
I112
sg2637
I2494
sg2638
I2495
sg2746
I2603
sg261
I113
sg2076
I1931
sg561
I414
sg1404
I1259
sg1405
I1260
sg1406
I1261
sg262
I114
sg3874
I3731
sg2991
I2848
sg3875
I3732
sg1407
I1262
sg924
I778
sg1408
I1263
sg3208
I3065
sg1168
I1023
sg263
I115
sg4592
I4449
sg1742
I1597
sg3069
I2926
sg2119
I1974
sg3787
I3644
sg1409
I1264
sg1410
I1265
sg2641
I2498
sg2642
I2499
sg3877
I3734
sg1411
I1266
sg3878
I3735
sg2643
I2500
sg2052
I1907
sg2644
I2501
sg2330
I2186
sg1412
I1267
sg1413
I1268
sg2645
I2502
sg1415
I1270
sg1416
I1271
sg1417
I1272
sg2951
I2808
sg1418
I1273
sg264
I116
sg2331
I2187
sg265
I117
sg1419
I1274
sg1743
I1598
sg1420
I1275
sg3268
I3125
sg266
I118
sg3883
I3740
sg267
I119
sg268
I120
sg565
I418
sg2646
I2503
sg269
I121
sg270
I122
sg271
I123
sg1422
I1277
sg3888
I3745
sg1423
I1278
sg1424
I1279
sg1439
I1294
sg272
I124
sg3890
I3747
sg1425
I1280
sg3891
I3748
sg3892
I3749
sg1426
I1281
sg3306
I3163
sg3894
I3751
sg2647
I2504
sg2750
I2607
sg2648
I2505
sg2649
I2506
sg960
I814
sg273
I125
sg3334
I3191
sg274
I126
sg275
I127
sg2751
I2608
sg276
I128
sg2539
I2395
sg277
I129
sg278
I130
sg2651
I2508
sg2466
I2322
sg3896
I3753
sg2652
I2509
sg1427
I1282
sg907
I761
sg1428
I1283
sg279
I131
sg1429
I1284
sg280
I132
sg1430
I1285
sg1510
I1365
sg3897
I3754
sg2657
I2514
sg2658
I2515
sg281
I133
sg282
I134
sg3898
I3755
sg3899
I3756
sg2659
I2516
sg896
I750
sg1431
I1286
sg3392
I3249
sg3900
I3757
sg2661
I2518
sg1432
I1287
sg1433
I1288
sg2663
I2520
sg283
I135
sg2664
I2521
sg3902
I3759
sg1434
I1289
sg480
I333
sg1436
I1291
sg3903
I3760
sg285
I137
sg286
I138
sg3905
I3762
sg3906
I3763
sg1437
I1292
sg3047
I2904
sg1438
I1293
sg287
I139
sg943
I797
sg1747
I1602
sg1301
I1156
sg845
I698
sg3592
I3449
sg289
I141
sg1442
I1297
sg290
I142
sg1444
I1299
sg291
I143
sg3908
I3765
sg2059
I1914
sg1446
I1301
sg1447
I1302
sg292
I144
sg3910
I3767
sg1448
I1303
sg2461
I2317
sg2667
I2524
sg2668
I2525
sg1449
I1304
sg986
I841
sg294
I146
sg993
I848
sg1450
I1305
sg297
I149
sg3911
I3768
sg1451
I1306
sg3463
I3320
sg2671
I2528
sg2672
I2529
sg2673
I2530
sg740
I593
sg1454
I1309
sg1455
I1310
sg2674
I2531
sg1203
I1058
sg298
I150
sg1457
I1312
sg299
I151
sg300
I152
sg933
I787
sg3919
I3776
sg301
I153
sg3489
I3346
sg2676
I2533
sg2136
I1992
sg3797
I3654
sg303
I155
sg3496
I3353
sg304
I156
sg1458
I1313
sg1459
I1314
sg4770
I4627
sg2758
I2615
sg1218
I1073
sg568
I421
sg1462
I1317
sg2681
I2538
sg306
I158
sg3922
I3779
sg307
I159
sg1749
I1604
sg3411
I3268
sg1464
I1319
sg3923
I3780
sg1465
I1320
sg308
I160
sg2683
I2540
sg4681
I4538
sg2684
I2541
sg309
I161
sg1841
I1696
sg2955
I2812
sg1467
I1322
sg2686
I2543
sg1750
I1605
sg1468
I1323
sg1469
I1324
sg3926
I3783
sg742
I595
sg2338
I2194
sg2687
I2544
sg310
I162
sg3928
I3785
sg2688
I2545
sg1470
I1325
sg934
I788
sg1471
I1326
sg1108
I963
sg313
I165
sg1472
I1327
sg1264
I1119
sg2690
I2547
sg3929
I3786
sg1473
I1328
sg1474
I1329
sg2546
I2402
sg2692
I2549
sg3932
I3789
sg1475
I1330
sg314
I166
sg570
I423
sg315
I167
sg1326
I1181
sg316
I168
sg3933
I3790
sg3581
I3438
sg317
I169
sg318
I170
sg1140
I995
sg1478
I1333
sg4905
I4762
sg1479
I1334
sg1150
I1005
sg1480
I1335
sg1481
I1336
sg1482
I1337
sg321
I173
sg2696
I2553
sg322
I174
sg2697
I2554
sg323
I175
sg2698
I2555
sg3935
I3792
sg324
I176
sg1483
I1338
sg325
I177
sg4772
I4629
sg1484
I1339
sg1485
I1340
sg1486
I1341
sg155
I7
sg1488
I1343
sg2699
I2556
sg957
I811
sg326
I178
sg3401
I3258
sg1489
I1344
sg2547
I2403
sg1490
I1345
sg1196
I1051
sg329
I181
sg1491
I1346
sg2847
I2704
sg2965
I2822
sg3936
I3793
sg3650
I3507
sg3989
I3846
sg2549
I2405
sg1492
I1347
sg3939
I3796
sg1493
I1348
sg331
I183
sg3940
I3797
sg2700
I2557
sg1495
I1350
sg3664
I3521
sg2342
I2198
sg2486
I2342
sg2551
I2407
sg2701
I2558
sg332
I184
sg3403
I3260
sg2703
I2560
sg1926
I1781
sg2704
I2561
sg3945
I3802
sg3680
I3537
sg2552
I2408
sg333
I185
sg3948
I3805
sg1497
I1352
sg1498
I1353
sg335
I187
sg1087
I942
sg336
I188
sg1499
I1354
sg2653
I2510
sg1500
I1355
sg4775
I4632
sg2705
I2562
sg1547
I1402
sg337
I189
sg2706
I2563
sg3802
I3659
sg1501
I1356
sg551
I404
sg2707
I2564
sg1502
I1357
sg1503
I1358
sg338
I190
sg339
I191
sg1504
I1359
sg900
I754
sg3952
I3809
sg1929
I1784
sg3722
I3579
sg1255
I1110
sg2710
I2567
sg1256
I1111
sg341
I193
sg3955
I3812
sg2711
I2568
sg2712
I2569
sg23
I194
sg2713
I2570
sg2714
I2571
sg3959
I3816
sg342
I195
sg2715
I2572
sg2716
I2573
sg343
I196
sg937
I791
sg2717
I2574
sg1507
I1362
sg1508
I1363
sg2719
I2576
sg1073
I928
sg344
I197
sg3961
I3818
sg2720
I2577
sg345
I198
sg3963
I3820
sS'<null>'
p5003
I1
sg346
I199
sg4101
I3958
sg2721
I2578
sg347
I200
sg348
I201
sg2722
I2579
sg3964
I3821
sg1795
I1650
sg349
I202
sg3965
I3822
sg3966
I3823
sg1511
I1366
sg2724
I2581
sg2765
I2622
sg2725
I2582
sg1512
I1367
sg2726
I2583
sg1513
I1368
sg350
I203
sg3804
I3661
sg2728
I2585
sg909
I763
sg1257
I1112
sg1514
I1369
sg1515
I1370
sg187
I39
sg1516
I1371
sg2969
I2826
sg2732
I2589
sg3805
I3662
sg1163
I1018
sg352
I205
sg3370
I3227
sg1338
I1193
sg2734
I2591
sg1341
I1196
sg2735
I2592
sg340
I192
sg1518
I1373
sg354
I207
sg3967
I3824
sg1519
I1374
sg355
I208
sg747
I600
sg1520
I1375
sg356
I209
sg1522
I1377
sg942
I796
sg3958
I3815
sg2738
I2595
sg2739
I2596
sg1523
I1378
sg2740
I2597
sg357
I210
sg2741
I2598
sg1246
I1101
sg1935
I1790
sg3970
I3827
sg1525
I1380
sg358
I211
sg359
I212
sg946
I800
sg2742
I2599
sg2743
I2600
sg947
I801
sg3806
I3663
sg361
I214
sg3863
I3720
sg1529
I1384
sg362
I215
sg749
I602
sg363
I216
sg1530
I1385
sg364
I217
sg3561
I3418
sg2747
I2604
sg3975
I3832
sg365
I218
sg1333
I1188
sg3977
I3834
sg2748
I2605
sg1531
I1386
sg366
I219
sg367
I220
sg2749
I2606
sg1532
I1387
sg368
I221
sg1533
I1388
sg2387
I2243
sg1534
I1389
sg1535
I1390
sg2767
I2624
sg1536
I1391
sg2196
I2052
sg369
I222
sg3981
I3838
sg690
I543
sg3982
I3839
sg2352
I2208
sg2754
I2611
sg1538
I1393
sg2755
I2612
sg370
I223
sg2756
I2613
sg2757
I2614
sg1539
I1394
sg1540
I1395
sg1541
I1396
sg2759
I2616
sg1542
I1397
sg581
I434
sg2760
I2617
sg3987
I3844
sg3420
I3277
sg1543
I1398
sg1327
I1182
sg4078
I3935
sg2010
I1865
sg2761
I2618
sg371
I224
sg372
I225
sg1545
I1400
sg2762
I2619
sg1550
I1405
sg1546
I1401
sg373
I226
sg374
I227
sg375
I228
sg376
I229
sg1548
I1403
sg1549
I1404
sg1509
I1364
sg2764
I2621
sg3990
I3847
sg377
I230
sg3992
I3849
sg2766
I2623
sg3608
I3465
sg2479
I2335
sg3993
I3850
sg378
I231
sg379
I232
sg380
I233
sg3980
I3837
sg2768
I2625
sg381
I234
sg2769
I2626
sg3995
I3852
sg1544
I1399
sg1334
I1189
sg1551
I1406
sg3997
I3854
sg382
I235
sg3998
I3855
sg3999
I3856
sg4000
I3857
sg3811
I3668
sg4002
I3859
sg4003
I3860
sg4001
I3858
sg4004
I3861
sg2770
I2627
sg4006
I3863
sg1552
I1407
sg948
I802
sg383
I236
sg1796
I1651
sg2508
I2364
sg384
I237
sg2488
I2344
sg1554
I1409
sg2772
I2629
sg385
I238
sg1570
I1425
sg1555
I1410
sg386
I239
sg387
I240
sg388
I241
sg389
I242
sg390
I243
sg4010
I3867
sg1556
I1411
sg1582
I1437
sg2775
I2632
sg4005
I3862
sg391
I244
sg4011
I3868
sg4012
I3869
sg3610
I3467
sg2776
I2633
sg2777
I2634
sg954
I808
sg392
I245
sg393
I246
sg1164
I1019
sg2380
I2236
sg2779
I2636
sg4015
I3872
sg4016
I3873
sg394
I247
sg4017
I3874
sg1559
I1414
sg1560
I1415
sg2780
I2637
sg1561
I1416
sg4008
I3865
sg4019
I3876
sg2771
I2628
sg1562
I1417
sg4020
I3877
sg4021
I3878
sg1563
I1418
sg2358
I2214
sg2781
I2638
sg1564
I1419
sg4022
I3879
sg1641
I1496
sg1939
I1794
sg4023
I3880
sg4106
I3963
sg4024
I3881
sg1494
I1349
sg396
I249
sg397
I250
sg1566
I1421
sg398
I251
sg1567
I1422
sg399
I252
sg400
I253
sg1569
I1424
sg330
I182
sg2784
I2641
sg4025
I3882
sg2656
I2513
sg1571
I1426
sg2190
I2046
sg4027
I3884
sg4028
I3885
sg401
I254
sg755
I608
sg2787
I2644
sg215
I67
sg402
I255
sg3815
I3672
sg403
I256
sg891
I745
sg2790
I2647
sg404
I257
sg4031
I3888
sg1572
I1427
sg2030
I1885
sg405
I258
sg406
I259
sg1159
I1014
sg4032
I3889
sg407
I260
sg1573
I1428
sg408
I261
sg409
I262
sg1574
I1429
sg3312
I3169
sg2174
I2030
sg2793
I2650
sg2773
I2630
sg410
I263
sg974
I828
sg1575
I1430
sg1234
I1089
sg411
I264
sg1576
I1431
sg4035
I3892
sg412
I265
sg1577
I1432
sg413
I266
sg2564
I2420
sg1578
I1433
sg1579
I1434
sg414
I267
sg1580
I1435
sg4036
I3893
sg351
I204
sg1086
I941
sg1759
I1614
sg415
I268
sg2802
I2659
sg2803
I2660
sg1581
I1436
sg756
I609
sg4038
I3895
sg2804
I2661
sg2774
I2631
sg2805
I2662
sg4040
I3897
sg4041
I3898
sg2806
I2663
sg4043
I3900
sg1584
I1439
sg2807
I2664
sg4240
I4097
sg1585
I1440
sg1069
I924
sg4044
I3901
sg1586
I1441
sg4730
I4587
sg1557
I1412
sg2080
I1935
sg2810
I2667
sg1587
I1442
sg417
I270
sg2568
I2424
sg418
I271
sg419
I272
sg2145
I2001
sg1588
I1443
sg2811
I2668
sg1589
I1444
sg1766
I1621
sg2812
I2669
sg3616
I3473
sg420
I273
sg149
I0
sg421
I274
sg1590
I1445
sg422
I275
sg423
I276
sg1767
I1622
sg4046
I3903
sg2815
I2672
sg2816
I2673
sg1592
I1447
sg425
I278
sg1745
I1600
sg1593
I1448
sg3617
I3474
sg4804
I4661
sg1166
I1021
sg426
I279
sg427
I280
sg4417
I4274
sg428
I281
sg3618
I3475
sg1595
I1450
sg429
I282
sg1596
I1451
sg2820
I2677
sg1597
I1452
sg1598
I1453
sg2569
I2425
sg1599
I1454
sg430
I283
sg1600
I1455
sg3819
I3676
sg1601
I1456
sg431
I284
sg432
I285
sg1110
I965
sg4058
I3915
sg4059
I3916
sg433
I286
sg434
I287
sg435
I288
sg2821
I2678
sg1602
I1457
sg1603
I1458
sg2514
I2370
sg1604
I1459
sg436
I289
sg437
I290
sg4342
I4199
sg1605
I1460
sg438
I291
sg439
I292
sg2825
I2682
sg1045
I900
sg2826
I2683
sg1558
I1413
sg2827
I2684
sg4061
I3918
sg441
I294
sg4062
I3919
sg1606
I1461
sg1607
I1462
sg831
I684
sg2192
I2048
sg3984
I3841
sg442
I295
sg1609
I1464
sg1610
I1465
sg599
I452
sg443
I296
sg2571
I2427
sg445
I298
sg446
I299
sg4373
I4230
sg4768
I4625
sg2149
I2005
sg2830
I2687
sg2831
I2688
sg4216
I4073
sg3729
I3586
sg1611
I1466
sg2832
I2689
sg447
I300
sg448
I301
sg4066
I3923
sg4067
I3924
sg4068
I3925
sg4069
I3926
sg2833
I2690
sg2834
I2691
sg1615
I1470
sg1054
I909
sg2835
I2692
sg4071
I3928
sg4072
I3929
sg1616
I1471
sg449
I302
sg4073
I3930
sg2837
I2694
sg2453
I2309
sg963
I817
sg2838
I2695
sg2840
I2697
sg4075
I3932
sg761
I614
sg2841
I2698
sg4018
I3875
sg450
I303
sg2842
I2699
sg2843
I2700
sg3822
I3679
sg2525
I2381
sg451
I304
sg1344
I1199
sg3621
I3478
sg2845
I2702
sg452
I305
sg453
I306
sg1621
I1476
sg1067
I922
sg454
I307
sg455
I308
sg1622
I1477
sg1623
I1478
sg4080
I3937
sg2846
I2703
sg1624
I1479
sg967
I821
sg588
I441
sg1626
I1481
sg2848
I2705
sg456
I309
sg2849
I2706
sg1629
I1484
sg4082
I3939
sg2851
I2708
sg457
I310
sg458
I311
sg2853
I2710
sg2000
I1855
sg3647
I3504
sg460
I313
sg461
I314
sg462
I315
sg1631
I1486
sg602
I455
sg3330
I3187
sg463
I316
sg1632
I1487
sg4087
I3944
sg464
I317
sg4088
I3945
sg4089
I3946
sg212
I64
sg4090
I3947
sg465
I318
sg2485
I2341
sg1633
I1488
sg4091
I3948
sg4092
I3949
sg3429
I3286
sg2859
I2716
sg2860
I2717
sg4093
I3950
sg4094
I3951
sg2861
I2718
sg1634
I1489
sg4095
I3952
sg2862
I2719
sg1635
I1490
sg1171
I1026
sg3367
I3224
sg1636
I1491
sg1637
I1492
sg466
I319
sg4097
I3954
sg1638
I1493
sg467
I320
sg1639
I1494
sg468
I321
sg1640
I1495
sg2864
I2721
sg469
I322
sg2367
I2223
sg1642
I1497
sg2866
I2723
sg4099
I3956
sg2576
I2432
sg604
I457
sg4102
I3959
sg4103
I3960
sg1643
I1498
sg472
I325
sg2368
I2224
sg473
I326
sg4625
I4482
sg474
I327
sg1644
I1499
sg1645
I1500
sg475
I328
sg476
I329
sg1647
I1502
sg2870
I2727
sg3433
I3290
sg477
I330
sg1174
I1029
sg4105
I3962
sg1565
I1420
sg1648
I1503
sg478
I331
sg2871
I2728
sg1649
I1504
sg1953
I1808
sg479
I332
sg4108
I3965
sg2782
I2639
sg481
I334
sg482
I335
sg4109
I3966
sg1651
I1506
sg2155
I2011
sg483
I336
sg4110
I3967
sg2142
I1998
sg484
I337
sg1652
I1507
sg4446
I4303
sg2156
I2012
sg1653
I1508
sg2151
I2007
sg4111
I3968
sg2877
I2734
sg2542
I2398
sg486
I339
sg1655
I1510
sg487
I340
sg2577
I2433
sg2879
I2736
sg4113
I3970
sg969
I823
sg2880
I2737
sg488
I341
sg936
I790
sg489
I342
sg4116
I3973
sg490
I343
sg491
I344
sg492
I345
sg4118
I3975
sg395
I248
sg1658
I1513
sg1659
I1514
sg1660
I1515
sg2366
I2222
sg493
I346
sg1661
I1516
sg494
I347
sg2882
I2739
sg4120
I3977
sg4121
I3978
sg2883
I2740
sg495
I348
sg2884
I2741
sg2579
I2435
sg497
I350
sg498
I351
sg4122
I3979
sg4123
I3980
sg499
I352
sg1664
I1519
sg1216
I1071
sg3197
I3054
sg2885
I2742
sg500
I353
sg501
I354
sg502
I355
sg1665
I1520
sg503
I356
sg504
I357
sg1568
I1423
sg3301
I3158
sg1666
I1521
sg217
I69
sg4125
I3982
sg506
I359
sg1667
I1522
sg1668
I1523
sg3341
I3198
sg1669
I1524
sg980
I834
sg4126
I3983
sg966
I820
sg507
I360
sg1671
I1526
sg508
I361
sg4129
I3986
sg4130
I3987
sg1673
I1528
sg1674
I1529
sg4805
I4662
sg1675
I1530
sg3724
I3581
sg4132
I3989
sg4223
I4080
sg2785
I2642
sg4744
I4601
sg2892
I2749
sg510
I363
sg511
I364
sg3202
I3059
sg1677
I1532
sg2893
I2750
sg1899
I1754
sg774
I627
sg2894
I2751
sg4134
I3991
sg2886
I2743
sg512
I365
sg2896
I2753
sg1679
I1534
sg2897
I2754
sg4136
I3993
sg513
I366
sg514
I367
sg1781
I1636
sg515
I368
sg2899
I2756
sg2900
I2757
sg4137
I3994
sg516
I369
sg1682
I1537
sg517
I370
sg4617
I4474
sg2341
I2197
sg1684
I1539
sg2902
I2759
sg2903
I2760
sg3207
I3064
sg3556
I3413
sg4806
I4663
sg518
I371
sg2904
I2761
sg3438
I3295
sg519
I372
sg2905
I2762
sg1151
I1006
sg3448
I3305
sg1686
I1541
sg2901
I2758
sg1627
I1482
sg4141
I3998
sg1687
I1542
sg520
I373
sg2908
I2765
sg2386
I2242
sg1689
I1544
sg2909
I2766
sg2910
I2767
sg2789
I2646
sg1690
I1545
sg1691
I1546
sg4143
I4000
sg975
I829
sg4144
I4001
sg522
I375
sg4145
I4002
sg2913
I2770
sg2084
I1939
sg525
I378
sg3371
I3228
sg1693
I1548
sg4146
I4003
sg2914
I2771
sg2915
I2772
sg2916
I2773
sg527
I380
sg528
I381
sg976
I830
sg4148
I4005
sg529
I382
sg2918
I2775
sg530
I383
sg2919
I2776
sg2920
I2777
sg1694
I1549
sg1695
I1550
sg2921
I2778
sg1696
I1551
sg531
I384
sg532
I385
sg533
I386
sg534
I387
sg1698
I1553
sg1700
I1555
sg1701
I1556
sg1702
I1557
sg1703
I1558
sg1704
I1559
sg2792
I2649
sg4149
I4006
sg2922
I2779
sg4150
I4007
sg2165
I2021
sg2923
I2780
sg1705
I1560
sg2494
I2350
sg536
I389
sg1706
I1561
sg537
I390
sg3917
I3774
sg4151
I4008
sg225
I77
sg4152
I4009
sg4917
I4774
sg2925
I2782
sg2283
I2139
sg538
I391
sg777
I630
sg1709
I1564
sg4153
I4010
sg1710
I1565
sg614
I467
sg1712
I1567
sg1521
I1376
sg4155
I4012
sg2926
I2783
sg4156
I4013
sg1715
I1570
sg539
I392
sg1716
I1571
sg1717
I1572
sg1718
I1573
sg4158
I4015
sg540
I393
sg4159
I4016
sg1719
I1574
sg3837
I3694
sg541
I394
sg2524
I2380
sg543
I396
sg2929
I2786
sg2930
I2787
sg1721
I1576
sg2932
I2789
sg2933
I2790
sg2934
I2791
sg1723
I1578
sg545
I398
sg546
I399
sg2477
I2333
sg2586
I2442
sg547
I400
sg1724
I1579
sg4162
I4019
sg548
I401
sg1726
I1581
sg2936
I2793
sg2570
I2426
sg2937
I2794
sg615
I468
sg3321
I3178
sg1728
I1583
sg1240
I1095
sg4163
I4020
sg2938
I2795
sg779
I632
sg4165
I4022
sg2794
I2651
sg1729
I1584
sg552
I405
sg2939
I2796
sg1731
I1586
sg2388
I2244
sg4166
I4023
sg2941
I2798
sg2942
I2799
sg1732
I1587
sg237
I89
sg4167
I4024
sg555
I408
sg2606
I2463
sg1734
I1589
sg1735
I1590
sg244
I96
sg2943
I2800
sg4169
I4026
sg2619
I2476
sg2796
I2653
sg2945
I2802
sg2946
I2803
sg2947
I2804
sg4170
I4027
sg1738
I1593
sg559
I412
sg1739
I1594
sg4171
I4028
sg560
I413
sg3491
I3348
sg3505
I3362
sg1741
I1596
sg4173
I4030
sg2950
I2807
sg562
I415
sg4175
I4032
sg3443
I3300
sg3213
I3070
sg4177
I4034
sg563
I416
sg4178
I4035
sg564
I417
sg4179
I4036
sg4180
I4037
sg4181
I4038
sg4182
I4039
sg4183
I4040
sg4184
I4041
sg1744
I1599
sg2797
I2654
sg4186
I4043
sg2660
I2517
sg4188
I4045
sg2953
I2810
sg1746
I1601
sg4189
I4046
sg295
I147
sg1962
I1817
sg1179
I1034
sg1192
I1047
sg567
I420
sg1080
I935
sg2679
I2536
sg1748
I1603
sg4192
I4049
sg2954
I2811
sg4193
I4050
sg2956
I2813
sg2957
I2814
sg2958
I2815
sg4194
I4051
sg2960
I2817
sg2961
I2818
sg2962
I2819
sg2963
I2820
sg4195
I4052
sg4196
I4053
sg1752
I1607
sg4197
I4054
sg571
I424
sg572
I425
sg2964
I2821
sg230
I82
sg4199
I4056
sg1753
I1608
sg1194
I1049
sg4200
I4057
sg2799
I2656
sg2966
I2823
sg2967
I2824
sg4201
I4058
sg1754
I1609
sg1755
I1610
sg1072
I927
sg1756
I1611
sg573
I426
sg574
I427
sg575
I428
sg576
I429
sg2968
I2825
sg577
I430
sg4202
I4059
sg1757
I1612
sg2800
I2657
sg4203
I4060
sg1758
I1613
sg578
I431
sg4205
I4062
sg579
I432
sg2972
I2829
sg2801
I2658
sg580
I433
sg3129
I2986
sg1760
I1615
sg2973
I2830
sg4206
I4063
sg582
I435
sg1761
I1616
sg4207
I4064
sg2974
I2831
sg583
I436
sg4037
I3894
sg2975
I2832
sg585
I438
sg2976
I2833
sg586
I439
sg2171
I2027
sg2977
I2834
sg2978
I2835
sg1762
I1617
sg1763
I1618
sg4209
I4066
sg587
I440
sg2980
I2837
sg1764
I1619
sg3844
I3701
sg3072
I2929
sg2982
I2839
sg2173
I2029
sg2783
I2640
sg1213
I1068
sg4210
I4067
sg589
I442
sg4211
I4068
sg590
I443
sg4212
I4069
sg2983
I2840
sg2984
I2841
sg2985
I2842
sg2986
I2843
sg4039
I3896
sg4213
I4070
sg593
I446
sg3516
I3373
sg595
I448
sg4214
I4071
sg597
I450
sg2128
I1984
sg598
I451
sg617
I470
sg2988
I2845
sg4215
I4072
sg785
I638
sg1769
I1624
sg1770
I1625
sg600
I453
sg2989
I2846
sg2990
I2847
sg1772
I1627
sg601
I454
sg1773
I1628
sg4324
I4181
sg4217
I4074
sg2992
I2849
sg4218
I4075
sg1774
I1629
sg2175
I2031
sg2014
I1869
sg2993
I2850
sg4219
I4076
sg603
I456
sg2994
I2851
sg1775
I1630
sg1788
I1643
sg2995
I2852
sg1776
I1631
sg1777
I1632
sg772
I625
sg1778
I1633
sg1779
I1634
sg605
I458
sg4222
I4079
sg1780
I1635
sg606
I459
sg2997
I2854
sg931
I785
sg2998
I2855
sg607
I460
sg608
I461
sg609
I462
sg2999
I2856
sg3845
I3702
sg2293
I2149
sg2513
I2369
sg3000
I2857
sg3001
I2858
sg610
I463
sg4224
I4081
sg3002
I2859
sg3003
I2860
sg620
I473
sg3005
I2862
sg3006
I2863
sg3007
I2864
sg2344
I2200
sg611
I464
sg2398
I2254
sg3655
I3512
sg3008
I2865
sg612
I465
sg3009
I2866
sg3010
I2867
sg1782
I1637
sg4225
I4082
sg613
I466
sg3011
I2868
sg3012
I2869
sg3013
I2870
sg1783
I1638
sg4227
I4084
sg1440
I1295
sg2202
I2058
sg4228
I4085
sg1971
I1826
sg3014
I2871
sg1784
I1639
sg4229
I4086
sg4045
I3902
sg566
I419
sg1200
I1055
sg3016
I2873
sg1786
I1641
sg4230
I4087
sg4231
I4088
sg3017
I2874
sg3018
I2875
sg2971
I2828
sg1787
I1642
sg2675
I2532
sg616
I469
sg4232
I4089
sg1792
I1647
sg4233
I4090
sg2987
I2844
sg3730
I3587
sg4236
I4093
sg4237
I4094
sg618
I471
sg1296
I1151
sg3022
I2879
sg4239
I4096
sg1201
I1056
sg1789
I1644
sg3795
I3652
sg1790
I1645
sg1791
I1646
sg3004
I2861
sg2176
I2032
sg621
I474
sg3024
I2881
sg4241
I4098
sg4185
I4042
sg3025
I2882
sg622
I475
sg3021
I2878
sg4242
I4099
sg998
I853
sg3220
I3077
sg793
I646
sg623
I476
sg3849
I3706
sg4243
I4100
sg3027
I2884
sg1793
I1648
sg625
I478
sg4244
I4101
sg4245
I4102
sg4246
I4103
sg3028
I2885
sg4247
I4104
sg4248
I4105
sg626
I479
sg3030
I2887
sg3031
I2888
sg3032
I2889
sg4250
I4107
sg4009
I3866
sg2603
I2459
sg624
I477
sg3751
I3608
sg3033
I2890
sg3034
I2891
sg3035
I2892
sg4252
I4109
sg1797
I1652
sg1798
I1653
sg284
I136
sg3609
I3466
sg627
I480
sg1799
I1654
sg4253
I4110
sg1800
I1655
sg1801
I1656
sg2407
I2263
sg1802
I1657
sg4254
I4111
sg4255
I4112
sg3847
I3704
sg669
I522
sg4256
I4113
sg3037
I2894
sg3038
I2895
sg4258
I4115
sg1804
I1659
sg4512
I4369
sg4261
I4118
sg3459
I3316
sg673
I526
sg628
I481
sg1805
I1660
sg3039
I2896
sg2605
I2462
sg3040
I2897
sg3041
I2898
sg2363
I2219
sg4264
I4121
sg1205
I1060
sg1281
I1136
sg4265
I4122
sg4266
I4123
sg1001
I856
sg1272
I1127
sg630
I483
sg631
I484
sg2813
I2670
sg908
I762
sg4267
I4124
sg2246
I2102
sg4268
I4125
sg1979
I1834
sg632
I485
sg633
I486
sg4270
I4127
sg634
I487
sg3042
I2899
sg2383
I2239
sg1003
I858
sg3043
I2900
sg635
I488
sg4272
I4129
sg636
I489
sg4453
I4310
sg3044
I2901
sg3045
I2902
sg4047
I3904
sg1809
I1664
sg1810
I1665
sg638
I491
sg3046
I2903
sg4274
I4131
sg728
I581
sg4048
I3905
sg4276
I4133
sg639
I492
sg1811
I1666
sg1812
I1667
sg640
I493
sg1813
I1668
sg4277
I4134
sg3048
I2905
sg2181
I2037
sg795
I648
sg642
I495
sg643
I496
sg644
I497
sg3689
I3546
sg1982
I1837
sg1814
I1669
sg4249
I4106
sg1815
I1670
sg2598
I2454
sg4235
I4092
sg3051
I2908
sg3052
I2909
sg1816
I1671
sg1145
I1000
sg1817
I1672
sg645
I498
sg3053
I2910
sg3186
I3043
sg4280
I4137
sg1235
I1090
sg1983
I1838
sg1208
I1063
sg3230
I3087
sg646
I499
sg647
I500
sg1818
I1673
sg648
I501
sg3054
I2911
sg3210
I3067
sg649
I502
sg1820
I1675
sg4112
I3969
sg1821
I1676
sg4281
I4138
sg2414
I2270
sg3057
I2914
sg4282
I4139
sg650
I503
sg1822
I1677
sg651
I504
sg2876
I2733
sg2415
I2271
sg2182
I2038
sg1169
I1024
sg4284
I4141
sg801
I654
sg3059
I2916
sg652
I505
sg3060
I2917
sg4398
I4255
sg653
I506
sg654
I507
sg4287
I4144
sg811
I664
sg4288
I4145
sg3061
I2918
sg4289
I4146
sg4290
I4147
sg815
I668
sg4291
I4148
sg778
I631
sg4292
I4149
sg3064
I2921
sg3065
I2922
sg1824
I1679
sg3066
I2923
sg2844
I2701
sg2611
I2468
sg1825
I1680
sg1890
I1745
sg3068
I2925
sg4051
I3908
sg1826
I1681
sg3070
I2927
sg3071
I2928
sg1827
I1682
sg1828
I1683
sg656
I509
sg4297
I4154
sg4298
I4155
sg4299
I4156
sg4300
I4157
sg4301
I4158
sg657
I510
sg2819
I2676
sg1830
I1685
sg3036
I2893
sg3074
I2931
sg544
I397
sg3076
I2933
sg1831
I1686
sg1832
I1687
sg4303
I4160
sg3332
I3189
sg4451
I4308
sg4304
I4161
sg4305
I4162
sg1947
I1802
sg1835
I1690
sg661
I514
sg1837
I1692
sg4307
I4164
sg1838
I1693
sg1839
I1694
sg3853
I3710
sg4309
I4166
sg2186
I2042
sg3077
I2934
sg1198
I1053
sg4310
I4167
sg4054
I3911
sg4311
I4168
sg1840
I1695
sg3079
I2936
sg2187
I2043
sg901
I755
sg4312
I4169
sg3080
I2937
sg1842
I1697
sg1220
I1075
sg662
I515
sg663
I516
sg882
I736
sg917
I771
sg4316
I4173
sg4056
I3913
sg665
I518
sg927
I781
sg4443
I4300
sg4319
I4176
sg666
I519
sg591
I444
sg1845
I1700
sg3081
I2938
sg3082
I2939
sg1847
I1702
sg3083
I2940
sg4321
I4178
sg4322
I4179
sg1850
I1705
sg949
I803
sg1851
I1706
sg4257
I4114
sg3084
I2941
sg535
I388
sg1852
I1707
sg3086
I2943
sg1853
I1708
sg670
I523
sg3089
I2946
sg3090
I2947
sg1854
I1709
sg1855
I1710
sg1191
I1046
sg4325
I4182
sg2361
I2217
sg671
I524
sg4176
I4033
sg3092
I2949
sg3093
I2950
sg1280
I1135
sg4327
I4184
sg2189
I2045
sg1857
I1712
sg569
I422
sg2839
I2696
sg3095
I2952
sg3096
I2953
sg3097
I2954
sg1006
I861
sg3098
I2955
sg674
I527
sg3099
I2956
sg1010
I865
sg4262
I4119
sg3481
I3338
sg1858
I1713
sg1859
I1714
sg4331
I4188
sg1022
I877
sg4060
I3917
sg1861
I1716
sg2379
I2235
sg1862
I1717
sg4332
I4189
sg4333
I4190
sg3857
I3714
sg2027
I1882
sg675
I528
sg3101
I2958
sg3102
I2959
sg2822
I2679
sg1864
I1719
sg676
I529
sg677
I530
sg678
I531
sg1046
I901
sg3105
I2962
sg3106
I2963
sg2744
I2601
sg679
I532
sg799
I652
sg1866
I1721
sg1867
I1722
sg1390
I1245
sg4190
I4047
sg680
I533
sg4334
I4191
sg4335
I4192
sg3108
I2965
sg1868
I1723
sg1869
I1724
sg3109
I2966
sg4336
I4193
sg681
I534
sg682
I535
sg2193
I2049
sg2621
I2478
sg2823
I2680
sg4338
I4195
sg1870
I1725
sg683
I536
sg3113
I2970
sg2622
I2479
sg4339
I4196
sg3114
I2971
sg1176
I1031
sg2343
I2199
sg1872
I1727
sg1101
I956
sg1104
I959
sg685
I538
sg3115
I2972
sg4340
I4197
sg686
I539
sg3861
I3718
sg2824
I2681
sg1874
I1729
sg1117
I972
sg1875
I1730
sg1833
I1688
sg1876
I1731
sg687
I540
sg2944
I2801
sg3149
I3006
sg688
I541
sg3117
I2974
sg4344
I4201
sg4345
I4202
sg3118
I2975
sg4347
I4204
sg4348
I4205
sg1880
I1735
sg689
I542
sg4349
I4206
sg1148
I1003
sg3119
I2976
sg2195
I2051
sg691
I544
sg3023
I2880
sg790
I643
sg693
I546
sg4798
I4655
sg1882
I1737
sg2623
I2480
sg4808
I4665
sg4436
I4293
sg694
I547
sg695
I548
sg1883
I1738
sg696
I549
sg9
I2461
sg697
I550
sg698
I551
sg1884
I1739
sg1885
I1740
sg3123
I2980
sg3124
I2981
sg1186
I1041
sg699
I552
sg1886
I1741
sg2473
I2329
sg3055
I2912
sg1887
I1742
sg3125
I2982
sg700
I553
sg4079
I3936
sg701
I554
sg702
I555
sg703
I556
sg2198
I2054
sg3122
I2979
sg704
I557
sg3126
I2983
sg4355
I4212
sg1889
I1744
sg707
I560
sg708
I561
sg3666
I3523
sg999
I854
sg710
I563
sg3662
I3519
sg2828
I2685
sg3131
I2988
sg804
I657
sg4356
I4213
sg4357
I4214
sg2170
I2026
sg1891
I1746
sg805
I658
sg3132
I2989
sg4359
I4216
sg3133
I2990
sg1222
I1077
sg1893
I1748
sg1053
I908
sg4362
I4219
sg4363
I4220
sg3134
I2991
sg3135
I2992
sg2829
I2686
sg714
I567
sg3137
I2994
sg4365
I4222
sg2168
I2024
sg715
I568
sg3138
I2995
sg1217
I1072
sg1016
I871
sg1894
I1749
sg1238
I1093
sg4369
I4226
sg1896
I1751
sg1897
I1752
sg4271
I4128
sg716
I569
sg4371
I4228
sg3015
I2872
sg3718
I3575
sg3205
I3062
sg717
I570
sg3653
I3510
sg4372
I4229
sg3909
I3766
sg3140
I2997
sg1116
I971
sg3141
I2998
sg3063
I2920
sg4376
I4233
sg1269
I1124
sg1808
I1663
sg3143
I3000
sg3144
I3001
sg1900
I1755
sg4377
I4234
sg4378
I4235
sg1275
I1130
sg1901
I1756
sg719
I572
sg1173
I1028
sg4083
I3940
sg4381
I4238
sg720
I573
sg3146
I3003
sg1902
I1757
sg2207
I2063
sg2970
I2827
sg721
I574
sg637
I490
sg1477
I1332
sg1306
I1161
sg2002
I1857
sg3773
I3630
sg3147
I3004
sg724
I577
sg3294
I3151
sg4840
I4697
sg3148
I3005
sg1903
I1758
sg3150
I3007
sg2432
I2288
sg1904
I1759
sg1905
I1760
sg3151
I3008
sg3152
I3009
sg4382
I4239
sg4383
I4240
sg4384
I4241
sg3153
I3010
sg3154
I3011
sg821
I674
sg4065
I3922
sg440
I293
sg4386
I4243
sg3173
I3030
sg727
I580
sg4387
I4244
sg4388
I4245
sg2959
I2816
sg2004
I1859
sg4389
I4246
sg3155
I3012
sg4390
I4247
sg1613
I1468
sg3156
I3013
sg4392
I4249
sg1910
I1765
sg4394
I4251
sg1920
I1775
sg1019
I874
sg4396
I4253
sg729
I582
sg4397
I4254
sg1912
I1767
sg3867
I3724
sg1020
I875
sg1282
I1137
sg730
I583
sg1270
I1125
sg3852
I3709
sg4845
I4702
sg731
I584
sg1913
I1768
sg3158
I3015
sg4399
I4256
sg732
I585
sg733
I586
sg734
I587
sg3159
I3016
sg1914
I1769
sg1915
I1770
sg1135
I990
sg4351
I4208
sg735
I588
sg2425
I2281
sg3887
I3744
sg736
I589
sg737
I590
sg2210
I2066
sg3160
I3017
sg4401
I4258
sg3161
I3018
sg738
I591
sg3901
I3758
sg4403
I4260
sg739
I592
sg3162
I3019
sg1916
I1771
sg4847
I4704
sg4404
I4261
sg1917
I1772
sg3163
I3020
sg1918
I1773
sg1351
I1206
sg1452
I1307
sg1453
I1308
sg1919
I1774
sg3705
I3562
sg4405
I4262
sg741
I594
sg1921
I1776
sg1922
I1777
sg1024
I879
sg3164
I3021
sg743
I596
sg3165
I3022
sg1923
I1778
sg744
I597
sg3828
I3685
sg3166
I3023
sg1924
I1779
sg745
I598
sg3167
I3024
sg3327
I3184
sg1925
I1780
sg4435
I4292
sg746
I599
sg3168
I3025
sg2836
I2693
sg3169
I3026
sg1927
I1782
sg1928
I1783
sg2089
I1944
sg3745
I3602
sg2634
I2491
sg4745
I4602
sg4406
I4263
sg1930
I1785
sg258
I110
sg3170
I3027
sg3171
I3028
sg4407
I4264
sg1931
I1786
sg3255
I3112
sg2095
I1950
sg3050
I2907
sg1932
I1787
sg1933
I1788
sg4408
I4265
sg813
I666
sg1934
I1789
sg2427
I2283
sg748
I601
sg3969
I3826
sg4409
I4266
sg1527
I1382
sg3172
I3029
sg750
I603
sg3978
I3835
sg4410
I4267
sg3357
I3214
sg4411
I4268
sg4412
I4269
sg751
I604
sg2927
I2784
sg1936
I1791
sg150
I1
sg3127
I2984
sg3991
I3848
sg2580
I2436
sg1130
I985
sg1937
I1792
sg1938
I1793
sg4074
I3931
sg3174
I3031
sg752
I605
sg3175
I3032
sg3176
I3033
sg3873
I3730
sg3177
I3034
sg1940
I1795
sg4030
I3887
sg753
I606
sg754
I607
sg1941
I1796
sg1685
I1540
sg3178
I3035
sg2565
I2421
sg2015
I1870
sg1619
I1474
sg3179
I3036
sg1942
I1797
sg1181
I1036
sg3180
I3037
sg1943
I1798
sg4077
I3934
sg4413
I4270
sg757
I610
sg4414
I4271
sg758
I611
sg4415
I4272
sg1945
I1800
sg760
I613
sg3181
I3038
sg2385
I2241
sg3182
I3039
sg3183
I3040
sg1620
I1475
sg4057
I3914
sg762
I615
sg4279
I4136
sg1946
I1801
sg4063
I3920
sg3184
I3041
sg4419
I4276
sg1948
I1803
sg3185
I3042
sg1614
I1469
sg817
I670
sg4421
I4278
sg1949
I1804
sg1618
I1473
sg3187
I3044
sg3188
I3045
sg2213
I2069
sg3189
I3046
sg3941
I3798
sg4422
I4279
sg4878
I4735
sg3190
I3047
sg3191
I3048
sg1951
I1806
sg4423
I4280
sg4100
I3957
sg3193
I3050
sg766
I619
sg2639
I2496
sg4424
I4281
sg767
I620
sg3194
I3051
sg3195
I3052
sg768
I621
sg2898
I2755
sg1954
I1809
sg2096
I1951
sg2430
I2286
sg3196
I3053
sg770
I623
sg771
I624
sg1955
I1810
sg4425
I4282
sg3198
I3055
sg4426
I4283
sg3199
I3056
sg773
I626
sg3200
I3057
sg3201
I3058
sg4427
I4284
sg3203
I3060
sg3204
I3061
sg4428
I4285
sg4429
I4286
sg3206
I3063
sg4430
I4287
sg4154
I4011
sg4431
I4288
sg4302
I4159
sg1957
I1812
sg4568
I4425
sg4433
I4290
sg775
I628
sg4434
I4291
sg2017
I1872
sg776
I629
sg1708
I1563
sg1713
I1568
sg4161
I4018
sg4648
I4505
sg4437
I4294
sg4438
I4295
sg2124
I1979
sg1959
I1814
sg3211
I3068
sg780
I633
sg4540
I4397
sg3212
I3069
sg781
I634
sg3976
I3833
sg1286
I1141
sg1961
I1816
sg3807
I3664
sg4440
I4297
sg1963
I1818
sg1964
I1819
sg1965
I1820
sg3264
I3121
sg4822
I4679
sg1966
I1821
sg783
I636
sg1967
I1822
sg4442
I4299
sg784
I637
sg3056
I2913
sg1968
I1823
sg3860
I3717
sg1765
I1620
sg3214
I3071
sg4444
I4301
sg786
I639
sg3215
I3072
sg1970
I1825
sg4445
I4302
sg1972
I1827
sg787
I640
sg1973
I1828
sg788
I641
sg3876
I3733
sg3216
I3073
sg1974
I1829
sg1785
I1640
sg1156
I1011
sg1975
I1830
sg791
I644
sg2493
I2349
sg1625
I1480
sg3217
I3074
sg3218
I3075
sg3219
I3076
sg4447
I4304
sg3221
I3078
sg3222
I3079
sg3223
I3080
sg3224
I3081
sg3225
I3082
sg3326
I3183
sg2817
I2674
sg3226
I3083
sg3227
I3084
sg1977
I1832
sg4263
I4120
sg1978
I1833
sg3228
I3085
sg1807
I1662
sg1980
I1835
sg794
I647
sg4449
I4306
sg1981
I1836
sg3058
I2915
sg796
I649
sg3229
I3086
sg4450
I4307
sg3231
I3088
sg1984
I1839
sg2147
I2003
sg797
I650
sg3232
I3089
sg1985
I1840
sg1986
I1841
sg3233
I3090
sg1987
I1842
sg3879
I3736
sg3234
I3091
sg4452
I4309
sg4315
I4172
sg3236
I3093
sg1989
I1844
sg769
I622
sg2219
I2075
sg3833
I3690
sg1990
I1845
sg2550
I2406
sg1991
I1846
sg4432
I4289
sg3237
I3094
sg1993
I1848
sg1994
I1849
sg327
I179
sg3238
I3095
sg3239
I3096
sg1995
I1850
sg4454
I4311
sg800
I653
sg1997
I1852
sg4285
I4142
sg3240
I3097
sg3241
I3098
sg320
I172
sg3683
I3540
sg4455
I4312
sg3242
I3099
sg3243
I3100
sg3244
I3101
sg802
I655
sg3245
I3102
sg803
I656
sg4286
I4143
sg4456
I4313
sg3246
I3103
sg4358
I4215
sg4084
I3941
sg1999
I1854
sg806
I659
sg459
I312
sg3248
I3105
sg222
I74
sg4375
I4232
sg2854
I2711
sg1015
I870
sg2001
I1856
sg4458
I4315
sg2115
I1970
sg3250
I3107
sg807
I660
sg3251
I3108
sg4385
I4242
sg4459
I4316
sg3252
I3109
sg2005
I1860
sg2006
I1861
sg4828
I4685
sg3253
I3110
sg808
I661
sg4460
I4317
sg655
I508
sg3254
I3111
sg809
I662
sg810
I663
sg2112
I1967
sg1221
I1076
sg2008
I1863
sg2009
I1864
sg4085
I3942
sg2011
I1866
sg2012
I1867
sg4374
I4231
sg2490
I2346
sg3256
I3113
sg823
I676
sg2013
I1868
sg2019
I1874
sg814
I667
sg3258
I3115
sg4463
I4320
sg2016
I1871
sg3688
I3545
sg816
I669
sg4420
I4277
sg3881
I3738
sg4464
I4321
sg3918
I3775
sg1952
I1807
sg3260
I3117
sg818
I671
sg4086
I3943
sg4649
I4506
sg3261
I3118
sg4465
I4322
sg1958
I1813
sg4314
I4171
sg1960
I1815
sg1612
I1467
sg3882
I3739
sg4466
I4323
sg3494
I3351
sg1794
I1649
sg2791
I2648
sg820
I673
sg4467
I4324
sg3265
I3122
sg2018
I1873
sg4468
I4325
sg4560
I4417
sg1988
I1843
sg667
I520
sg2856
I2713
sg3266
I3123
sg2020
I1875
sg4293
I4150
sg4471
I4328
sg3267
I3124
sg4472
I4329
sg822
I675
sg4473
I4330
sg4474
I4331
sg4462
I4319
sg3269
I3126
sg1239
I1094
sg4475
I4332
sg3270
I3127
sg3271
I3128
sg4863
I4720
sg3272
I3129
sg2021
I1876
sg3645
I3502
sg4477
I4334
sg2857
I2714
sg3274
I3131
sg4479
I4336
sg3276
I3133
sg2023
I1878
sg4758
I4615
sg1313
I1168
sg2029
I1884
sg3885
I3742
sg1209
I1064
sg4679
I4536
sg2024
I1879
sg3273
I3130
sg825
I678
sg2996
I2853
sg2022
I1877
sg826
I679
sg3279
I3136
sg1848
I1703
sg3281
I3138
sg1180
I1035
sg3282
I3139
sg4480
I4337
sg3886
I3743
sg3283
I3140
sg4481
I4338
sg4482
I4339
sg2026
I1881
sg4483
I4340
sg3067
I2924
sg4478
I4335
sg3284
I3141
sg829
I682
sg830
I683
sg3285
I3142
sg2031
I1886
sg2032
I1887
sg4294
I4151
sg2033
I1888
sg2034
I1889
sg2979
I2836
sg4485
I4342
sg3287
I3144
sg4487
I4344
sg2035
I1890
sg2036
I1891
sg3889
I3746
sg2037
I1892
sg4295
I4152
sg1039
I894
sg2038
I1893
sg832
I685
sg2039
I1894
sg833
I686
sg3682
I3539
sg2497
I2353
sg2040
I1895
sg3288
I3145
sg2111
I1966
sg1305
I1160
sg834
I687
sg3692
I3549
sg3289
I3146
sg2316
I2172
sg3290
I3147
sg2041
I1896
sg4049
I3906
sg4602
I4459
sg2043
I1898
sg2044
I1899
sg1537
I1392
sg3734
I3591
sg835
I688
sg3295
I3152
sg2130
I1986
sg3296
I3153
sg3297
I3154
sg4491
I4348
sg1206
I1061
sg2045
I1900
sg4492
I4349
sg837
I690
sg838
I691
sg4493
I4350
sg2312
I2168
sg3299
I3156
sg4494
I4351
sg4495
I4352
sg3300
I3157
sg3823
I3680
sg4629
I4486
sg4497
I4354
sg2046
I1901
sg4498
I4355
sg839
I692
sg3303
I3160
sg4500
I4357
sg4501
I4358
sg2047
I1902
sg840
I693
sg2048
I1903
sg4503
I4360
sg4096
I3953
sg4505
I4362
sg4506
I4363
sg3278
I3135
sg2050
I1905
sg2051
I1906
sg4507
I4364
sg841
I694
sg842
I695
sg3979
I3836
sg1228
I1083
sg4508
I4365
sg3308
I3165
sg843
I696
sg3954
I3811
sg592
I445
sg2279
I2135
sg844
I697
sg3309
I3166
sg4509
I4366
sg3280
I3137
sg3311
I3168
sg2054
I1909
sg4259
I4116
sg846
I699
sg3313
I3170
sg847
I700
sg2055
I1910
sg3314
I3171
sg3315
I3172
sg2420
I2276
sg2678
I2535
sg3415
I3272
sg4510
I4367
sg848
I701
sg3316
I3173
sg3317
I3174
sg3694
I3551
sg4511
I4368
sg850
I703
sg3318
I3175
sg851
I704
sg2228
I2084
sg852
I705
sg2056
I1911
sg853
I706
sg3322
I3179
sg2057
I1912
sg4513
I4370
sg658
I511
sg2058
I1913
sg4514
I4371
sg3323
I3180
sg855
I708
sg3075
I2932
sg3324
I3181
sg2060
I1915
sg1149
I1004
sg4208
I4065
sg857
I710
sg4515
I4372
sg2274
I2130
sg4517
I4374
sg2275
I2131
sg2277
I2133
sg4729
I4586
sg1044
I899
sg1628
I1483
sg2025
I1880
sg4518
I4375
sg2280
I2136
sg2061
I1916
sg2650
I2507
sg2282
I2138
sg858
I711
sg859
I712
sg2064
I1919
sg4070
I3927
sg2763
I2620
sg3062
I2919
sg4520
I4377
sg3333
I3190
sg2733
I2590
sg4521
I4378
sg4852
I4709
sg3335
I3192
sg3336
I3193
sg3337
I3194
sg862
I715
sg4226
I4083
sg660
I513
sg3338
I3195
sg3339
I3196
sg863
I716
sg4522
I4379
sg3340
I3197
sg4523
I4380
sg864
I717
sg4524
I4381
sg865
I718
sg866
I719
sg1129
I984
sg867
I720
sg4098
I3955
sg2069
I1924
sg4526
I4383
sg1076
I931
sg868
I721
sg2070
I1925
sg869
I722
sg2071
I1926
sg4306
I4163
sg870
I723
sg1768
I1623
sg4528
I4385
sg4313
I4170
sg3343
I3200
sg2865
I2722
sg2573
I2429
sg2353
I2209
sg2356
I2212
sg3344
I3201
sg4588
I4445
sg17
I724
sg2074
I1929
sg4533
I4390
sg4791
I4648
sg2855
I2712
sg871
I725
sg3345
I3202
sg4275
I4132
sg872
I726
sg2028
I1883
sg3649
I3506
sg879
I733
sg921
I775
sg4535
I4392
sg2078
I1933
sg4536
I4393
sg4220
I4077
sg4484
I4341
sg874
I728
sg4534
I4391
sg4537
I4394
sg4538
I4395
sg2079
I1934
sg875
I729
sg3347
I3204
sg2067
I1922
sg2401
I2257
sg876
I730
sg4542
I4399
sg877
I731
sg2082
I1937
sg3994
I3851
sg2633
I2490
sg3350
I3207
sg4545
I4402
sg4546
I4403
sg878
I732
sg3842
I3699
sg2132
I1988
sg2389
I2245
sg880
I734
sg2083
I1938
sg4836
I4693
sg2654
I2511
sg4841
I4698
sg4548
I4405
sg3352
I3209
sg2655
I2512
sg4851
I4708
sg2085
I1940
sg3354
I3211
sg3355
I3212
sg2086
I1941
sg2087
I1942
sg883
I737
sg4549
I4406
sg4308
I4165
sg884
I738
sg1050
I905
sg885
I739
sg3259
I3116
sg886
I740
sg3356
I3213
sg4550
I4407
sg3247
I3104
sg4551
I4408
sg3699
I3556
sg2088
I1943
sg3358
I3215
sg887
I741
sg4553
I4410
sg888
I742
sg1233
I1088
sg3359
I3216
sg3360
I3217
sg890
I744
sg1302
I1157
sg172
I24
sg3361
I3218
sg3362
I3219
sg4554
I4411
sg4555
I4412
sg3363
I3220
sg2090
I1945
sg3364
I3221
sg4556
I4413
sg892
I746
sg3351
I3208
sg3365
I3222
sg4486
I4343
sg4557
I4414
sg4558
I4415
sg4559
I4416
sg3366
I3223
sg2092
I1947
sg893
I747
sg2869
I2726
sg4921
I4778
sg4488
I4345
sg692
I545
sg3368
I3225
sg4561
I4418
sg3078
I2935
sg894
I748
sg1751
I1606
sg2094
I1949
sg1646
I1501
sg895
I749
sg3369
I3226
sg4562
I4419
sg2516
I2372
sg897
I751
sg4128
I3985
sg898
I752
sg3372
I3229
sg557
I410
sg2097
I1952
sg4564
I4421
sg3373
I3230
sg3374
I3231
sg3927
I3784
sg2098
I1953
sg4565
I4422
sg2495
I2351
sg3375
I3232
sg903
I757
sg2100
I1955
sg1771
I1626
sg3376
I3233
sg904
I758
sg905
I759
sg3377
I3234
sg3378
I3235
sg2101
I1956
sg302
I154
sg2102
I1957
sg2103
I1958
sg2544
I2400
sg2104
I1959
sg2236
I2092
sg3380
I3237
sg1055
I910
sg4569
I4426
sg2105
I1960
sg4570
I4427
sg4571
I4428
sg4572
I4429
sg4573
I4430
sg3382
I3239
sg3383
I3240
sg2108
I1963
sg1274
I1129
sg2237
I2093
sg4574
I4431
sg4575
I4432
sg2238
I2094
sg2662
I2519
sg914
I768
sg915
I769
sg4576
I4433
sg223
I75
sg4578
I4435
sg4579
I4436
sg2455
I2311
sg2109
I1964
sg2110
I1965
sg4580
I4437
sg1236
I1091
sg4581
I4438
sg1843
I1698
sg918
I772
sg4582
I4439
sg664
I517
sg4584
I4441
sg2239
I2095
sg4585
I4442
sg2113
I1968
sg4586
I4443
sg3386
I3243
sg4587
I4444
sg4317
I4174
sg2626
I2483
sg1435
I1290
sg3387
I3244
sg922
I776
sg2517
I2373
sg3388
I3245
sg4590
I4447
sg923
I777
sg4591
I4448
sg3389
I3246
sg2117
I1972
sg2640
I2497
sg3390
I3247
sg4594
I4451
sg925
I779
sg926
I780
sg4318
I4175
sg4595
I4452
sg1043
I898
sg3862
I3719
sg3291
I3148
sg2120
I1975
sg1193
I1048
sg4596
I4453
sg928
I782
sg4597
I4454
sg4296
I4153
sg929
I783
sg4599
I4456
sg4600
I4457
sg3304
I3161
sg4601
I4458
sg930
I784
sg293
I145
sg932
I786
sg3275
I3132
sg3394
I3251
sg3395
I3252
sg4603
I4460
sg4604
I4461
sg3396
I3253
sg3397
I3254
sg3904
I3761
sg4605
I4462
sg2123
I1978
sg4606
I4463
sg3292
I3149
sg3398
I3255
sg2873
I2730
sg2795
I2652
sg4607
I4464
sg668
I521
sg1650
I1505
sg3399
I3256
sg1860
I1715
sg3400
I3257
sg2618
I2475
sg3402
I3259
sg4658
I4515
sg19
I1980
sg3996
I3853
sg2125
I1981
sg2126
I1982
sg4609
I4466
sg4610
I4467
sg2241
I2097
sg2127
I1983
sg4880
I4737
sg4611
I4468
sg4612
I4469
sg2702
I2559
sg836
I689
sg3405
I3262
sg938
I792
sg2129
I1985
sg939
I793
sg4489
I4346
sg1849
I1704
sg3406
I3263
sg2875
I2732
sg940
I794
sg2133
I1989
sg2134
I1990
sg4613
I4470
sg4746
I4603
sg2737
I2594
sg288
I140
sg944
I798
sg945
I799
sg2135
I1991
sg360
I213
sg3409
I3266
sg3410
I3267
sg2137
I1993
sg4614
I4471
sg3973
I3830
sg2138
I1994
sg2243
I2099
sg3412
I3269
sg3413
I3270
sg3414
I3271
sg950
I804
sg951
I805
sg952
I806
sg2139
I1995
sg824
I677
sg953
I807
sg247
I99
sg3416
I3273
sg4616
I4473
sg2778
I2635
sg955
I809
sg956
I810
sg3418
I3275
sg1445
I1300
sg2141
I1997
sg1065
I920
sg3419
I3276
sg4670
I4527
sg4104
I3961
sg3110
I2967
sg1443
I1298
sg4618
I4475
sg3421
I3278
sg3422
I3279
sg961
I815
sg2143
I1999
sg2144
I2000
sg3423
I3280
sg4619
I4476
sg2808
I2665
sg4620
I4477
sg3424
I3281
sg2814
I2671
sg3085
I2942
sg2146
I2002
sg4621
I4478
sg3788
I3645
sg3192
I3049
sg3425
I3282
sg3426
I3283
sg2148
I2004
sg962
I816
sg3427
I3284
sg3907
I3764
sg3087
I2944
sg3428
I3285
sg550
I403
sg4622
I4479
sg4623
I4480
sg2150
I2006
sg3088
I2945
sg1287
I1142
sg2464
I2320
sg964
I818
sg965
I819
sg3675
I3532
sg2858
I2715
sg3430
I3287
sg2153
I2009
sg3916
I3773
sg3431
I3288
sg968
I822
sg3432
I3289
sg4626
I4483
sg2154
I2010
sg3434
I3291
sg3435
I3292
sg819
I672
sg2157
I2013
sg485
I338
sg4627
I4484
sg3436
I3293
sg2881
I2738
sg1068
I923
sg971
I825
sg4496
I4353
sg972
I826
sg973
I827
sg4703
I4560
sg3302
I3159
sg2244
I2100
sg4630
I4487
sg3437
I3294
sg2159
I2015
sg2160
I2016
sg1856
I1711
sg4234
I4091
sg2161
I2017
sg4499
I4356
sg2162
I2018
sg4168
I4025
sg2163
I2019
sg3439
I3296
sg524
I377
sg2798
I2655
sg3440
I3297
sg2164
I2020
sg3441
I3298
sg424
I277
sg977
I831
sg4631
I4488
sg4632
I4489
sg978
I832
sg979
I833
sg4114
I3971
sg2695
I2552
sg3442
I3299
sg4633
I4490
sg2166
I2022
sg3286
I3143
sg2106
I1961
sg4634
I4491
sg4115
I3972
sg4635
I4492
sg2178
I2034
sg4636
I4493
sg982
I836
sg3444
I3301
sg2167
I2023
sg983
I837
sg3445
I3302
sg2062
I1917
sg4368
I4225
sg4637
I4494
sg4638
I4495
sg984
I839
sg4639
I4496
sg985
I840
sg4055
I3912
sg3073
I2930
sg1051
I906
sg3447
I3304
sg2247
I2103
sg2669
I2526
sg4640
I4497
sg4641
I4498
sg987
I842
sg3449
I3306
sg4642
I4499
sg4643
I4500
sg4644
I4501
sg3450
I3307
sg3451
I3308
sg988
I843
sg4645
I4502
sg4646
I4503
sg989
I844
sg990
I845
sg3452
I3309
sg3453
I3310
sg991
I846
sg992
I847
sg2731
I2588
sg3454
I3311
sg4647
I4504
sg3307
I3164
sg994
I849
sg995
I850
sg996
I851
sg3019
I2876
sg1241
I1096
sg997
I852
sg3455
I3312
sg3456
I3313
sg4117
I3974
sg3457
I3314
sg3458
I3315
sg1011
I866
sg3029
I2886
sg2670
I2527
sg1000
I855
sg4650
I4507
sg4651
I4508
sg2179
I2035
sg4042
I3899
sg3460
I3317
sg3461
I3318
sg1002
I857
sg3094
I2951
sg3277
I3134
sg2541
I2397
sg2180
I2036
sg2441
I2297
sg4652
I4509
sg1004
I859
sg4033
I3890
sg4328
I4185
sg4653
I4510
sg3912
I3769
sg1005
I860
sg3464
I3321
sg3465
I3322
sg3466
I3323
sg4894
I4751
sg4204
I4061
sg4654
I4511
sg2185
I2041
sg4119
I3976
sg3467
I3324
sg3913
I3770
sg3468
I3325
sg4655
I4512
sg2188
I2044
sg3469
I3326
sg1456
I1311
sg4656
I4513
sg2107
I1962
sg1007
I862
sg2491
I2347
sg3100
I2957
sg4329
I4186
sg2257
I2113
sg2191
I2047
sg3914
I3771
sg4657
I4514
sg3471
I3328
sg4693
I4550
sg4659
I4516
sg2194
I2050
sg1008
I863
sg4660
I4517
sg3713
I3570
sg2259
I2115
sg1009
I864
sg4330
I4187
sg3473
I3330
sg1553
I1408
sg1012
I867
sg1013
I868
sg2197
I2053
sg4661
I4518
sg3474
I3331
sg1014
I869
sg3475
I3332
sg3257
I3114
sg3476
I3333
sg4662
I4519
sg2200
I2056
sg3974
I3831
sg2201
I2057
sg1944
I1799
sg3479
I3336
sg3480
I3337
sg2203
I2059
sg4393
I4250
sg2863
I2720
sg2204
I2060
sg4664
I4521
sg2205
I2061
sg1017
I872
sg4665
I4522
sg3482
I3339
sg1018
I873
sg2208
I2064
sg3985
I3842
sg4666
I4523
sg4667
I4524
sg763
I616
sg4668
I4525
sg2209
I2065
sg3209
I3066
sg1021
I876
sg3091
I2948
sg4013
I3870
sg4160
I4017
sg4669
I4526
sg3483
I3340
sg1023
I878
sg4671
I4528
sg4672
I4529
sg2211
I2067
sg1248
I1103
sg1025
I880
sg3484
I3341
sg3485
I3342
sg3486
I3343
sg2177
I2033
sg1026
I881
sg1027
I882
sg1028
I883
sg2260
I2116
sg3487
I3344
sg1029
I884
sg1249
I1104
sg4674
I4531
sg1823
I1678
sg4675
I4532
sg3488
I3345
sg2390
I2246
sg4676
I4533
sg2214
I2070
sg2931
I2788
sg3446
I3303
sg1031
I886
sg2215
I2071
sg1662
I1517
sg1032
I887
sg2217
I2073
sg2218
I2074
sg3490
I3347
sg4915
I4772
sg2212
I2068
sg4007
I3864
sg4677
I4534
sg1034
I889
sg1035
I890
sg2256
I2112
sg3492
I3349
sg3938
I3795
sg4799
I4656
sg812
I665
sg2509
I2365
sg2220
I2076
sg2221
I2077
sg4678
I4535
sg1036
I891
sg2222
I2078
sg3493
I3350
sg2515
I2371
sg1663
I1518
sg2788
I2645
sg1079
I934
sg1253
I1108
sg1038
I893
sg4680
I4537
sg2224
I2080
sg2263
I2119
sg1680
I1535
sg1227
I1082
sg2935
I2792
sg1245
I1100
sg3495
I3352
sg828
I681
sg4682
I4539
sg2225
I2081
sg4683
I4540
sg2226
I2082
sg2887
I2744
sg4684
I4541
sg4685
I4542
sg1040
I895
sg3497
I3354
sg1258
I1113
sg2227
I2083
sg3103
I2960
sg4400
I4257
sg3498
I3355
sg2077
I1932
sg4395
I4252
sg1041
I896
sg2753
I2610
sg3499
I3356
sg1042
I897
sg4686
I4543
sg3500
I3357
sg2152
I2008
sg4687
I4544
sg2265
I2121
sg2229
I2085
sg2230
I2086
sg4029
I3886
sg3501
I3358
sg1081
I936
sg3502
I3359
sg3319
I3176
sg4026
I3883
sg1048
I903
sg4688
I4545
sg2232
I2088
sg3503
I3360
sg1049
I904
sg4690
I4547
sg2233
I2089
sg2183
I2039
sg3504
I3361
sg765
I618
sg792
I645
sg2235
I2091
sg2888
I2745
sg2355
I2211
sg3506
I3363
sg3507
I3364
sg3508
I3365
sg1052
I907
sg1461
I1316
sg3509
I3366
sg3510
I3367
sg3511
I3368
sg3512
I3369
sg3513
I3370
sg3514
I3371
sg4899
I4756
sg3515
I3372
sg4691
I4548
sg4269
I4126
sg3385
I3242
sg3107
I2964
sg1803
I1658
sg1057
I912
sg4692
I4549
sg3921
I3778
sg1058
I913
sg1059
I914
sg2240
I2096
sg1060
I915
sg1061
I916
sg1062
I917
sg3393
I3250
sg3517
I3374
sg2680
I2537
sg4901
I4758
sg3404
I3261
sg2242
I2098
sg4695
I4552
sg1064
I919
sg3518
I3375
sg4696
I4553
sg3519
I3376
sg3520
I3377
sg4697
I4554
sg3521
I3378
sg3262
I3119
sg4698
I4555
sg3971
I3828
sg1414
I1269
sg1066
I921
sg2895
I2752
sg4699
I4556
sg4700
I4557
sg4701
I4558
sg4702
I4559
sg854
I707
sg4704
I4561
sg1070
I925
sg4705
I4562
sg1656
I1511
sg4416
I4273
sg1071
I926
sg4706
I4563
sg4707
I4564
sg3523
I3380
sg3524
I3381
sg4708
I4565
sg3525
I3382
sg2249
I2105
sg3681
I3538
sg2250
I2106
sg2251
I2107
sg4710
I4567
sg2252
I2108
sg4711
I4568
sg2253
I2109
sg4712
I4569
sg1074
I929
sg2254
I2110
sg2255
I2111
sg3526
I3383
sg4713
I4570
sg856
I709
sg3470
I3327
sg2258
I2114
sg3527
I3384
sg3472
I3329
sg1075
I930
sg3528
I3385
sg2131
I1987
sg1077
I932
sg3325
I3182
sg2231
I2087
sg1421
I1276
sg3924
I3781
sg3725
I3582
sg3293
I3150
sg3529
I3386
sg3821
I3678
sg1033
I888
sg2261
I2117
sg3536
I3393
sg1078
I933
sg2262
I2118
sg3530
I3387
sg4714
I4571
sg2264
I2120
sg2172
I2028
sg3531
I3388
sg1047
I902
sg2118
I1973
sg3726
I3583
sg3532
I3389
sg2266
I2122
sg3533
I3390
sg2267
I2123
sg2872
I2729
sg3534
I3391
sg4127
I3984
sg2268
I2124
sg4715
I4572
sg2269
I2125
sg4716
I4573
sg4717
I4574
sg1466
I1321
sg1082
I937
sg4337
I4194
sg3535
I3392
sg4718
I4575
sg2452
I2308
sg1083
I938
sg1084
I939
sg1085
I940
sg296
I148
sg2270
I2126
sg3537
I3394
sg2271
I2127
sg4720
I4577
sg3538
I3395
sg2273
I2129
sg4721
I4578
sg3803
I3660
sg4722
I4579
sg4441
I4298
sg4723
I4580
sg3943
I3800
sg4724
I4581
sg4133
I3990
sg2276
I2132
sg3541
I3398
sg3542
I3399
sg3111
I2968
sg1089
I944
sg4727
I4584
sg1672
I1527
sg4728
I4585
sg4124
I3981
sg3112
I2969
sg3925
I3782
sg3545
I3402
sg1871
I1726
sg4490
I4347
sg3329
I3186
sg1969
I1824
sg3539
I3396
sg4731
I4588
sg641
I494
sg2952
I2809
sg2426
I2282
sg4283
I4140
sg4732
I4589
sg1506
I1361
sg1092
I947
sg3547
I3404
sg1093
I948
sg1094
I949
sg1095
I950
sg3548
I3405
sg3549
I3406
sg1096
I951
sg4519
I4376
sg154
I6
sg509
I362
sg2063
I1918
sg1098
I953
sg3540
I3397
sg2284
I2140
sg3331
I3188
sg1099
I954
sg3550
I3407
sg3104
I2961
sg1976
I1831
sg2285
I2141
sg1102
I957
sg4911
I4768
sg2287
I2143
sg1103
I958
sg3635
I3492
sg2065
I1920
sg3328
I3185
sg1873
I1728
sg1105
I960
sg4733
I4590
sg3552
I3409
sg1088
I943
sg3553
I3410
sg2066
I1921
sg2291
I2147
sg2292
I2148
sg4734
I4591
sg3554
I3411
sg1106
I961
sg1676
I1531
sg3555
I3412
sg1107
I962
sg4736
I4593
sg4737
I4594
sg4457
I4314
sg4738
I4595
sg4739
I4596
sg3557
I3414
sg2294
I2150
sg3684
I3541
sg2689
I2546
sg1109
I964
sg3558
I3415
sg3559
I3416
sg2295
I2151
sg2296
I2152
sg3560
I3417
sg3145
I3002
sg4742
I4599
sg4743
I4600
sg3562
I3419
sg861
I714
sg2297
I2153
sg2298
I2154
sg4470
I4327
sg1111
I966
sg1112
I967
sg4341
I4198
sg4064
I3921
sg3563
I3420
sg3930
I3787
sg2422
I2278
sg3564
I3421
sg1819
I1674
sg1113
I968
sg1114
I969
sg2301
I2157
sg2691
I2548
sg3116
I2973
sg3566
I3423
sg3544
I3401
sg4747
I4604
sg3249
I3106
sg4726
I4583
sg2302
I2158
sg1260
I1115
sg1262
I1117
sg1118
I973
sg3931
I3788
sg3567
I3424
sg4748
I4605
sg2303
I2159
sg4749
I4606
sg1119
I974
sg2305
I2161
sg2306
I2162
sg1121
I976
sg3856
I3713
sg4751
I4608
sg4752
I4609
sg3568
I3425
sg2309
I2165
sg2310
I2166
sg4753
I4610
sg3320
I3177
sg1122
I977
sg2311
I2167
sg1291
I1146
sg1123
I978
sg2693
I2550
sg1308
I1163
sg1505
I1360
sg3782
I3639
sg3570
I3427
sg1261
I1116
sg4076
I3933
sg3571
I3428
sg1877
I1732
sg4754
I4611
sg3572
I3429
sg4755
I4612
sg4756
I4613
sg1124
I979
sg3573
I3430
sg1125
I980
sg4757
I4614
sg3574
I3431
sg2878
I2735
sg4107
I3964
sg4759
I4616
sg2694
I2551
sg2315
I2171
sg4918
I4775
sg1090
I945
sg2053
I1908
sg1844
I1699
sg3575
I3432
sg860
I713
sg1865
I1720
sg2487
I2343
sg3576
I3433
sg3577
I3434
sg4343
I4200
sg2786
I2643
sg1128
I983
sg3578
I3435
sg3579
I3436
sg1878
I1733
sg2319
I2175
sg4135
I3992
sg3829
I3686
sg2321
I2177
sg1177
I1032
sg1131
I986
sg1132
I987
sg3580
I3437
sg1476
I1331
sg1133
I988
sg4689
I4546
sg1375
I1230
sg2322
I2178
sg2592
I2448
sg1134
I989
sg3582
I3439
sg3583
I3440
sg2324
I2180
sg4346
I4203
sg2325
I2181
sg4760
I4617
sg305
I157
sg3586
I3443
sg1091
I946
sg1136
I991
sg3587
I3444
sg4326
I4183
sg2327
I2183
sg3588
I3445
sg1138
I993
sg1243
I1098
sg1139
I994
sg2328
I2184
sg4761
I4618
sg3417
I3274
sg1879
I1734
sg2329
I2185
sg4504
I4361
sg4525
I4382
sg1142
I997
sg3880
I3737
sg3589
I3446
sg4763
I4620
sg4764
I4621
sg2332
I2188
sg4765
I4622
sg2300
I2156
sg3884
I3741
sg2333
I2189
sg3895
I3752
sg3590
I3447
sg416
I269
sg1143
I998
sg3591
I3448
sg1881
I1736
sg3407
I3264
sg4766
I4623
sg4767
I4624
sg2334
I2190
sg3298
I3155
sg3594
I3451
sg2335
I2191
sg4769
I4626
sg2336
I2192
sg4138
I3995
sg2337
I2193
sg1463
I1318
sg1146
I1001
sg3596
I3453
sg1147
I1002
sg4771
I4628
sg3408
I3265
sg1683
I1538
sg4273
I4130
sg2072
I1927
sg4418
I4275
sg2339
I2195
sg2340
I2196
sg3597
I3454
sg3342
I3199
sg1230
I1085
sg3546
I3403
sg3598
I3455
sg4773
I4630
sg1496
I1351
sg3672
I3529
sg3947
I3804
sg319
I171
sg4774
I4631
sg3599
I3456
sg4776
I4633
sg4777
I4634
sg4778
I4635
sg4779
I4636
sg4780
I4637
sg2345
I2201
sg1152
I1007
sg4781
I4638
sg1153
I1008
sg3600
I3457
sg3934
I3791
sg2347
I2203
sg2682
I2539
sg3601
I3458
sg1517
I1372
sg4782
I4639
sg2073
I1928
sg4164
I4021
sg2349
I2205
sg4783
I4640
sg1155
I1010
sg3604
I3461
sg2350
I2206
sg2351
I2207
sg3605
I3462
sg4900
I4757
sg4563
I4420
sg3606
I3463
sg4784
I4641
sg3986
I3843
sg3988
I3845
sg4530
I4387
sg2354
I2210
sg3607
I3464
sg4531
I4388
sg4785
I4642
sg1157
I1012
sg2357
I2213
sg2906
I2763
sg4532
I4389
sg1158
I1013
sg1998
I1853
sg2281
I2137
sg4786
I4643
sg4787
I4644
sg4788
I4645
sg4789
I4646
sg2874
I2731
sg3611
I3468
sg3748
I3605
sg3612
I3469
sg3613
I3470
sg3121
I2978
sg4034
I3891
sg3614
I3471
sg3615
I3472
sg1161
I1016
sg1162
I1017
sg2478
I2334
sg2360
I2216
sg981
I835
sg1834
I1689
sg3593
I3450
sg2446
I2302
sg1591
I1446
sg1165
I1020
sg1097
I952
sg4050
I3907
sg4323
I4180
sg4053
I3910
sg1271
I1126
sg3049
I2906
sg3619
I3476
sg3620
I3477
sg1167
I1022
sg4792
I4649
sg2364
I2220
sg2365
I2221
sg2075
I1930
sg4793
I4650
sg4794
I4651
sg1030
I885
sg4795
I4652
sg584
I437
sg2199
I2055
sg1170
I1025
sg3622
I3479
sg4796
I4653
sg4797
I4654
sg759
I612
sg1172
I1027
sg3623
I3480
sg2583
I2439
sg4800
I4657
sg4350
I4207
sg3624
I3481
sg2369
I2225
sg4191
I4048
sg2370
I2226
sg3462
I3319
sg3346
I3203
sg3625
I3482
sg1175
I1030
sg1654
I1509
sg3626
I3483
sg2371
I2227
sg4801
I4658
sg3627
I3484
sg2372
I2228
sg2373
I2229
sg2496
I2352
sg4802
I4659
sg1178
I1033
sg4803
I4660
sg2890
I2747
sg3628
I3485
sg1100
I955
sg2248
I2104
sg3629
I3486
sg3630
I3487
sg2374
I2230
sg1182
I1037
sg2375
I2231
sg2376
I2232
sg2377
I2233
sg4927
I4784
sg2378
I2234
sg4139
I3996
sg4140
I3997
sg873
I727
sg3631
I3488
sg4928
I4785
sg4807
I4664
sg2907
I2764
sg2382
I2238
sg1183
I1038
sg2234
I2090
sg2384
I2240
sg1184
I1039
sg1699
I1554
sg1733
I1588
sg4439
I4296
sg521
I374
sg4809
I4666
sg3633
I3490
sg3632
I3489
sg958
I812
sg1185
I1040
sg3634
I3491
sg4352
I4209
sg1187
I1042
sg941
I795
sg959
I813
sg1188
I1043
sg4353
I4210
sg1189
I1044
sg1727
I1582
sg4810
I4667
sg4811
I4668
sg4857
I4714
sg1190
I1045
sg4320
I4177
sg4812
I4669
sg3636
I3493
sg4081
I3938
sg2169
I2025
sg3637
I3494
sg2290
I2146
sg3638
I3495
sg4198
I4055
sg2391
I2247
sg3639
I3496
sg3551
I3408
sg2393
I2249
sg3640
I3497
sg2394
I2250
sg3846
I3703
sg4142
I3999
sg2709
I2566
sg2395
I2251
sg3641
I3498
sg3603
I3460
sg2223
I2079
sg4813
I4670
sg3642
I3499
sg3643
I3500
sg3644
I3501
sg4221
I4078
sg28
I838
sg4814
I4671
sg3646
I3503
sg2397
I2253
sg1197
I1052
sg3648
I3505
sg1199
I1054
sg4815
I4672
sg2399
I2255
sg1836
I1691
sg4816
I4673
sg2400
I2256
sg4541
I4398
sg2402
I2258
sg4817
I4674
sg4818
I4675
sg2403
I2259
sg1202
I1057
sg1681
I1536
sg1204
I1059
sg4819
I4676
sg2404
I2260
sg2405
I2261
sg4820
I4677
sg4821
I4678
sg782
I635
sg2406
I2262
sg1711
I1566
sg1229
I1084
sg4260
I4117
sg1806
I1661
sg1278
I1133
sg2666
I2523
sg523
I376
sg3235
I3092
sg2410
I2266
sg1207
I1062
sg4527
I4384
sg2411
I2267
sg798
I651
sg2412
I2268
sg3752
I3609
sg3651
I3508
sg3652
I3509
sg2413
I2269
sg2562
I2418
sg3654
I3511
sg4543
I4400
sg4823
I4680
sg4694
I4551
sg3349
I3206
sg3949
I3806
sg1210
I1065
sg1692
I1547
sg4544
I4401
sg1211
I1066
sg3656
I3513
sg1212
I1067
sg1056
I911
sg3020
I2877
sg1279
I1134
sg4825
I4682
sg2416
I2272
sg4826
I4683
sg2480
I2336
sg2417
I2273
sg1678
I1533
sg4014
I3871
sg4827
I4684
sg4187
I4044
sg3657
I3514
sg4402
I4259
sg1888
I1743
sg1214
I1069
sg911
I765
sg3658
I3515
sg3659
I3516
sg1215
I1070
sg1298
I1153
sg2418
I2274
sg4829
I4686
sg4830
I4687
sg1688
I1543
sg849
I702
sg4831
I4688
sg4735
I4592
sg4832
I4689
sg312
I164
sg3660
I3517
sg3661
I3518
sg3478
I3335
sg4354
I4211
sg4547
I4404
sg4834
I4691
sg2419
I2275
sg3663
I3520
sg2323
I2179
sg3942
I3799
sg706
I559
sg4835
I4692
sg881
I735
sg4837
I4694
sg3665
I3522
sg4833
I4690
sg4839
I4696
sg3128
I2985
sg526
I379
sg2423
I2279
sg709
I562
sg4842
I4699
sg4843
I4700
sg2424
I2280
sg1617
I1472
sg3120
I2977
sg4844
I4701
sg919
I773
sg2272
I2128
sg2348
I2204
sg4846
I4703
sg3668
I3525
sg3130
I2987
sg3669
I3526
sg3670
I3527
sg920
I774
sg2140
I1996
sg4848
I4705
sg3944
I3801
sg4849
I4706
sg2278
I2134
sg711
I564
sg4850
I4707
sg3353
I3210
sg2428
I2284
sg3671
I3528
sg238
I90
sg1441
I1296
sg3796
I3653
sg1154
I1009
sg3673
I3530
sg4628
I4485
sg2429
I2285
sg4853
I4710
sg712
I565
sg4529
I4386
sg3676
I3533
sg2431
I2287
sg3677
I3534
sg1219
I1074
sg3026
I2883
sg1736
I1591
sg2505
I2361
sg4854
I4711
sg4855
I4712
sg3679
I3536
sg2433
I2289
sg2434
I2290
sg4856
I4713
sg2460
I2316
sg4052
I3909
sg3946
I3803
sg2408
I2264
sg4858
I4715
sg4859
I4716
sg2436
I2292
sg4589
I4446
sg4860
I4717
sg4709
I4566
sg4861
I4718
sg713
I566
sg4740
I4597
sg3685
I3542
sg3379
I3236
sg4862
I4719
sg4360
I4217
sg2359
I2215
sg3686
I3543
sg4461
I4318
sg2437
I2293
sg334
I186
sg3687
I3544
sg4469
I4326
sg2438
I2294
sg2439
I2295
sg3585
I3442
sg2440
I2296
sg4476
I4333
sg1223
I1078
sg2442
I2298
sg3835
I3692
sg4864
I4721
sg4583
I4440
sg2443
I2299
sg1225
I1080
sg3690
I3547
sg1226
I1081
sg3691
I3548
sg4865
I4722
sg3754
I3611
sg2444
I2300
sg3983
I3840
sg4866
I4723
sg2042
I1897
sg2003
I1858
sg4131
I3988
sg3756
I3613
sg2602
I2458
sg4868
I4725
sg2049
I1904
sg4869
I4726
sg4870
I4727
sg3693
I3550
sg4871
I4728
sg4147
I4004
sg4872
I4729
sg2445
I2301
sg4364
I4221
sg1697
I1552
sg3696
I3553
sg764
I617
sg3136
I2993
sg2447
I2303
sg2068
I1923
sg1120
I975
sg2448
I2304
sg2326
I2182
sg3310
I3167
sg3697
I3554
sg659
I512
sg4873
I4730
sg4874
I4731
sg1583
I1438
sg1289
I1144
sg2158
I2014
sg4875
I4732
sg4876
I4733
sg3698
I3555
sg4877
I4734
sg1231
I1086
sg1232
I1087
sg596
I449
sg1127
I982
sg2449
I2305
sg3700
I3557
sg1273
I1128
sg4552
I4409
sg3701
I3558
sg4838
I4695
sg4879
I4736
sg2450
I2306
sg2729
I2586
sg2451
I2307
sg3695
I3552
sg4366
I4223
sg4719
I4576
sg4567
I4424
sg2454
I2310
sg3702
I3559
sg3703
I3560
sg3704
I3561
sg4942
I4799
sg4881
I4738
sg1487
I1342
sg4882
I4739
sg4593
I4450
sg1237
I1092
sg4598
I4455
sg2121
I1976
sg4883
I4740
sg2456
I2312
sg4884
I4741
sg2457
I2313
sg1293
I1148
sg4367
I4224
sg2458
I2314
sg2459
I2315
sg1895
I1750
sg4615
I4472
sg3706
I3563
sg3707
I3564
sg3950
I3807
sg4361
I4218
sg4174
I4031
sg2463
I2319
sg3477
I3334
sg3305
I3162
sg3708
I3565
sg4885
I4742
sg4886
I4743
sg4725
I4582
sg4624
I4481
sg3602
I3459
sg2465
I2321
sg889
I743
sg3709
I3566
sg3710
I3567
sg3674
I3531
sg3711
I3568
sg4888
I4745
sg1242
I1097
sg4889
I4746
sg2467
I2323
sg3785
I3642
sg722
I575
sg4890
I4747
sg4891
I4748
sg4892
I4749
sg3712
I3569
sg2469
I2325
sg705
I558
sg4893
I4750
sg3714
I3571
sg3715
I3572
sg4370
I4227
sg2949
I2806
sg2299
I2155
sg2471
I2327
sg1244
I1099
sg3716
I3573
sg3951
I3808
sg4895
I4752
sg4896
I4753
sg2818
I2675
sg4663
I4520
sg2206
I2062
sg1460
I1315
sg2472
I2328
sg1247
I1102
sg2184
I2040
sg4897
I4754
sg4608
I4465
sg1909
I1764
sg1250
I1105
sg3717
I3574
sg2474
I2330
sg4898
I4755
sg2475
I2331
sg2392
I2248
sg1524
I1379
sg1115
I970
sg2476
I2332
sg1294
I1149
sg789
I642
sg1251
I1106
sg3719
I3576
sg3720
I3577
sg2867
I2724
sg3721
I3578
sg1252
I1107
sg3543
I3400
sg2245
I2101
sg902
I756
sg2708
I2565
sg1254
I1109
sg1657
I1512
sg3723
I3580
sg2924
I2781
sg4902
I4759
sg4903
I4760
sg1892
I1747
sg1725
I1580
sg3953
I3810
sg1608
I1463
sg4906
I4763
sg4907
I4764
sg2852
I2709
sg4908
I4765
sg4909
I4766
sg4910
I4767
sg1195
I1050
sg3727
I3584
sg3728
I3585
sg594
I447
sg2481
I2337
sg2286
I2142
sg1259
I1114
sg1898
I1753
sg4912
I4769
sg4741
I4598
sg4913
I4770
sg4762
I4619
sg3731
I3588
sg3732
I3589
sg4904
I4761
sg4914
I4771
sg2483
I2339
sg2911
I2768
sg3956
I3813
sg3733
I3590
sg4916
I4773
sg2718
I2575
sg3957
I3814
sg4539
I4396
sg2484
I2340
sg1707
I1562
sg3735
I3592
sg2314
I2170
sg4251
I4108
sg3142
I2999
sg3737
I3594
sg3738
I3595
sg3739
I3596
sg3740
I3597
sg4919
I4776
sg2489
I2345
sg3741
I3598
sg3742
I3599
sg2462
I2318
sg3893
I3750
sg1037
I892
sg1265
I1120
sg3743
I3600
sg2093
I1948
sg4920
I4777
sg1266
I1121
sg1267
I1122
sg2665
I2522
sg1268
I1123
sg4502
I4359
sg970
I824
sg4922
I4779
sg3348
I3205
sg4923
I4780
sg3746
I3603
sg2492
I2348
sg3747
I3604
sg4924
I4781
sg4925
I4782
sg3960
I3817
sg2362
I2218
sg3749
I3606
sg2304
I2160
sg3750
I3607
sg1144
I999
sg4926
I4783
sg935
I789
sg827
I680
sg718
I571
sg2594
I2450
sg1063
I918
sg4929
I4786
sg4930
I4787
sg4931
I4788
sg4379
I4236
sg1276
I1131
sg2498
I2354
sg4932
I4789
sg4933
I4790
sg4750
I4607
sg2499
I2355
sg4934
I4791
sg4380
I4237
sg4935
I4792
sg2409
I2265
sg2500
I2356
sg2007
I1862
sg3753
I3610
sg4824
I4681
sg1160
I1015
sg2502
I2358
sg2503
I2359
sg2504
I2360
sg2307
I2163
sg3937
I3794
sg3915
I3772
sg1283
I1138
sg913
I767
sg1630
I1485
sg4936
I4793
sg4937
I4794
sg2506
I2362
sg2308
I2164
sg1284
I1139
sg3962
I3819
sg1285
I1140
sg4938
I4795
sg2507
I2363
sg3755
I3612
sg4867
I4724
sg3757
I3614
sg3758
I3615
sg3759
I3616
sg3760
I3617
sg3761
I3618
sg1288
I1143
sg4939
I4796
sg4238
I4095
sg4940
I4797
sg4941
I4798
sg1290
I1145
sg2510
I2366
sg1300
I1155
sg3762
I3619
sg3522
I3379
sg1292
I1147
sg4887
I4744
sg2511
I2367
sg2468
I2324
sg4943
I4800
sg2512
I2368
sg3595
I3452
sg4944
I4801
sg4790
I4647
sg1714
I1569
sg4945
I4802
sg4448
I4305
sg3763
I3620
sg1295
I1150
sg4946
I4803
sg4673
I4530
sg3764
I3621
sg4947
I4804
sg4948
I4805
sg3920
I3777
sg4949
I4806
sg1297
I1152
sg3765
I3622
sg2928
I2785
sg1846
I1701
sg3766
I3623
sg4157
I4014
sg2868
I2725
sg1299
I1154
sg3767
I3624
sg2518
I2374
sg3139
I2996
sg4950
I4807
sg3768
I3625
sg1956
I1811
sg3569
I3426
sg899
I753
ssS'pos2id_dict'
p5004
(dp5005
g4
I0
sg5
I1
sg21
I17
sg7
I3
sg8
I4
sg22
I18
sg10
I6
sg11
I7
sg12
I8
sg13
I9
sg14
I10
sg15
I11
sg16
I12
sg17
I13
sg18
I14
sg19
I15
sg20
I16
sg6
I2
sg9
I5
sg23
I19
sg24
I20
sg25
I21
sg26
I22
sg27
I23
sg28
I24
sg29
I25
sg30
I26
sg31
I27
sg32
I28
sg33
I29
sg34
I30
sg35
I31
sg36
I32
sg37
I33
sg38
I34
sg39
I35
sg40
I36
sg41
I37
sg42
I38
sg43
I39
sg44
I40
sg45
I41
sg46
I42
sg47
I43
sg48
I44
sg49
I45
ssb(iproperties
NetProperties
p5006
(dp5007
S'label_embed_dim'
p5008
I64
sS'pos_embed_dim'
p5009
I64
sS'word_embed_dim'
p5010
I64
sS'hidden_dim_2'
p5011
I200
sS'hidden_dim_1'
p5012
I200
sS'minibatch_size'
p5013
I1000
sbtp5014
.